
main.elf:     file format elf32-msp430


Disassembly of section .text:

0000f800 <__init_stack>:
    f800:	31 40 80 02 	mov	#640,	r1	;#0x0280

0000f804 <__low_level_init>:
    f804:	b2 40 80 5a 	mov	#23168,	&0x0120	;#0x5a80
    f808:	20 01 

0000f80a <__do_copy_data>:
    f80a:	3f 40 00 00 	mov	#0,	r15	;#0x0000
    f80e:	0f 93       	tst	r15		
    f810:	05 24       	jz	$+12     	;abs 0xf81c
    f812:	2f 83       	decd	r15		
    f814:	9f 4f b6 f8 	mov	-1866(r15),512(r15);0xf8b6(r15), 0x0200(r15)
    f818:	00 02 
    f81a:	fb 23       	jnz	$-8      	;abs 0xf812

0000f81c <__do_clear_bss>:
    f81c:	3f 40 00 00 	mov	#0,	r15	;#0x0000
    f820:	0f 93       	tst	r15		
    f822:	04 24       	jz	$+10     	;abs 0xf82c
    f824:	1f 83       	dec	r15		
    f826:	cf 43 00 02 	mov.b	#0,	512(r15);r3 As==00, 0x0200(r15)
    f82a:	fc 23       	jnz	$-6      	;abs 0xf824

0000f82c <__jump_to_main>:
    f82c:	30 40 92 f8 	br	#0xf892	

0000f830 <__ctors_end>:
    f830:	30 40 b4 f8 	br	#0xf8b4	

0000f834 <setup>:
#include "libraries/friendly_launchpad.h"

void setup() {
	// initialize the red led as output
	pinMode(10, OUTPUT);
    f834:	d2 d3 22 00 	bis.b	#1,	&0x0022	;r3 As==01
	// initialize the green led as output
	pinMode(16, OUTPUT);
    f838:	f2 d0 40 00 	bis.b	#64,	&0x0022	;#0x0040
    f83c:	22 00 
}
    f83e:	30 41       	ret			

0000f840 <loop>:

void loop() {
	// Flash the lights
	digitalWrite(10, HIGH);  
    f840:	d2 d3 21 00 	bis.b	#1,	&0x0021	;r3 As==01
	digitalWrite(16, LOW);
    f844:	f2 f0 bf ff 	and.b	#-65,	&0x0021	;#0xffbf
    f848:	21 00 
    f84a:	0f 43       	clr	r15		
    f84c:	0b 3c       	jmp	$+24     	;abs 0xf864
	delay(500);
    f84e:	f2 50 80 ff 	add.b	#-128,	&0x0029	;#0xff80
    f852:	29 00 
    f854:	1e 53       	inc	r14		
    f856:	3e 90 64 00 	cmp	#100,	r14	;#0x0064
    f85a:	f9 23       	jnz	$-12     	;abs 0xf84e
    f85c:	1f 53       	inc	r15		
    f85e:	3f 90 f4 01 	cmp	#500,	r15	;#0x01f4
    f862:	02 24       	jz	$+6      	;abs 0xf868
    f864:	0e 43       	clr	r14		
    f866:	f3 3f       	jmp	$-24     	;abs 0xf84e
	digitalWrite(10, LOW);  
    f868:	d2 c3 21 00 	bic.b	#1,	&0x0021	;r3 As==01
	digitalWrite(16, HIGH);
    f86c:	f2 d0 40 00 	bis.b	#64,	&0x0021	;#0x0040
    f870:	21 00 
    f872:	0f 43       	clr	r15		
    f874:	0b 3c       	jmp	$+24     	;abs 0xf88c
	delay(500);
    f876:	f2 50 80 ff 	add.b	#-128,	&0x0029	;#0xff80
    f87a:	29 00 
    f87c:	1e 53       	inc	r14		
    f87e:	3e 90 64 00 	cmp	#100,	r14	;#0x0064
    f882:	f9 23       	jnz	$-12     	;abs 0xf876
    f884:	1f 53       	inc	r15		
    f886:	3f 90 f4 01 	cmp	#500,	r15	;#0x01f4
    f88a:	02 24       	jz	$+6      	;abs 0xf890
    f88c:	0e 43       	clr	r14		
    f88e:	f3 3f       	jmp	$-24     	;abs 0xf876
    f890:	30 41       	ret			

0000f892 <main>:

// The main loop
void setup();
void loop();
int main(void)
{
    f892:	31 40 80 02 	mov	#640,	r1	;#0x0280
  // Stop watchdog
  WDTCTL = WDTPW + WDTHOLD;
    f896:	b2 40 80 5a 	mov	#23168,	&0x0120	;#0x5a80
    f89a:	20 01 

  // Todo maybe remove the defaults?
  // Not necessary as they default to input just like arduino
  //P1DIR = 0; // All input (arduino's default?)
  //P2DIR = 0; // All input
  P1SEL = 0; // All GPIO
    f89c:	c2 43 26 00 	mov.b	#0,	&0x0026	;r3 As==00
  P2SEL = 0; // All GPIO
    f8a0:	c2 43 2e 00 	mov.b	#0,	&0x002e	;r3 As==00
#include "libraries/friendly_launchpad.h"

void setup() {
	// initialize the red led as output
	pinMode(10, OUTPUT);
    f8a4:	d2 d3 22 00 	bis.b	#1,	&0x0022	;r3 As==01
	// initialize the green led as output
	pinMode(16, OUTPUT);
    f8a8:	f2 d0 40 00 	bis.b	#64,	&0x0022	;#0x0040
    f8ac:	22 00 

  setup();
  for(;;) {
  	loop();    
    f8ae:	b0 12 40 f8 	call	#0xf840	
    f8b2:	fd 3f       	jmp	$-4      	;abs 0xf8ae

0000f8b4 <_unexpected_>:
    f8b4:	00 13       	reti			

Disassembly of section .vectors:

0000ffe0 <InterruptVectors>:
    ffe0:	30 f8       	interrupt service routine at 0xf830
    ffe2:	30 f8       	interrupt service routine at 0xf830
    ffe4:	30 f8       	interrupt service routine at 0xf830
    ffe6:	30 f8       	interrupt service routine at 0xf830
    ffe8:	30 f8       	interrupt service routine at 0xf830
    ffea:	30 f8       	interrupt service routine at 0xf830
    ffec:	30 f8       	interrupt service routine at 0xf830
    ffee:	30 f8       	interrupt service routine at 0xf830
    fff0:	30 f8       	interrupt service routine at 0xf830
    fff2:	30 f8       	interrupt service routine at 0xf830
    fff4:	30 f8       	interrupt service routine at 0xf830
    fff6:	30 f8       	interrupt service routine at 0xf830
    fff8:	30 f8       	interrupt service routine at 0xf830
    fffa:	30 f8       	interrupt service routine at 0xf830
    fffc:	30 f8       	interrupt service routine at 0xf830
    fffe:	00 f8       	interrupt service routine at 0xf800

Disassembly of section .debug_aranges:

00000000 <.debug_aranges>:
   0:	10 00       	.word	0x0010;	????	
   2:	00 00       	.word	0x0000;	????	
   4:	02 00       	.word	0x0002;	????	
   6:	00 00       	.word	0x0000;	????	
   8:	00 00       	.word	0x0000;	????	
   a:	02 00       	.word	0x0002;	????	
   c:	34 f8       	and	@r8+,	r4	
   e:	80 00       	.word	0x0080;	????	
  10:	00 00       	.word	0x0000;	????	
  12:	00 00       	.word	0x0000;	????	
  14:	10 00       	.word	0x0010;	????	
  16:	00 00       	.word	0x0000;	????	
  18:	02 00       	.word	0x0002;	????	
  1a:	a7 0a       	.word	0x0aa7;	????	
  1c:	00 00       	.word	0x0000;	????	
  1e:	02 00       	.word	0x0002;	????	
  20:	00 f8       	and	r8,	r0	
  22:	04 00       	.word	0x0004;	????	
  24:	00 00       	.word	0x0000;	????	
  26:	00 00       	.word	0x0000;	????	
  28:	10 00       	.word	0x0010;	????	
  2a:	00 00       	.word	0x0000;	????	
  2c:	02 00       	.word	0x0002;	????	
  2e:	98 0b       	.word	0x0b98;	????	
  30:	00 00       	.word	0x0000;	????	
  32:	02 00       	.word	0x0002;	????	
  34:	0a f8       	and	r8,	r10	
  36:	12 00       	.word	0x0012;	????	
  38:	00 00       	.word	0x0000;	????	
  3a:	00 00       	.word	0x0000;	????	
  3c:	10 00       	.word	0x0010;	????	
  3e:	00 00       	.word	0x0000;	????	
  40:	02 00       	.word	0x0002;	????	
  42:	89 0c       	.word	0x0c89;	????	
  44:	00 00       	.word	0x0000;	????	
  46:	02 00       	.word	0x0002;	????	
  48:	1c f8 10 00 	and	16(r8),	r12	;0x0010(r8)
  4c:	00 00       	.word	0x0000;	????	
  4e:	00 00       	.word	0x0000;	????	
  50:	10 00       	.word	0x0010;	????	
  52:	00 00       	.word	0x0000;	????	
  54:	02 00       	.word	0x0002;	????	
  56:	7a 0d       	.word	0x0d7a;	????	
  58:	00 00       	.word	0x0000;	????	
  5a:	02 00       	.word	0x0002;	????	
  5c:	2c f8       	and	@r8,	r12	
  5e:	04 00       	.word	0x0004;	????	
  60:	00 00       	.word	0x0000;	????	
	...

Disassembly of section .debug_pubnames:

00000000 <.debug_pubnames>:
   0:	fb 02       	.word	0x02fb;	????	
   2:	00 00       	.word	0x0000;	????	
   4:	02 00       	.word	0x0002;	????	
   6:	00 00       	.word	0x0000;	????	
   8:	00 00       	.word	0x0000;	????	
   a:	a7 0a       	.word	0x0aa7;	????	
   c:	00 00       	.word	0x0000;	????	
   e:	39 05       	.word	0x0539;	????	
  10:	00 00       	.word	0x0000;	????	
  12:	73 65       	.word	0x6573;	????	Illegal as 2-op instr
  14:	74 75       	subc.b	@r5+,	r4	
  16:	70 00       	.word	0x0070;	????	
  18:	45 05       	.word	0x0545;	????	
  1a:	00 00       	.word	0x0000;	????	
  1c:	6c 6f       	addc.b	@r15,	r12	
  1e:	6f 70       	subc.b	@r0,	r15	
  20:	00 a9       	dadd	r9,	r0	
  22:	05 00       	.word	0x0005;	????	
  24:	00 6d       	addc	r13,	r0	
  26:	61 69       	addc.b	@r9,	r1	
  28:	6e 00       	.word	0x006e;	????	
  2a:	cd 05       	.word	0x05cd;	????	
  2c:	00 00       	.word	0x0000;	????	
  2e:	44 43       	clr.b	r4		
  30:	4f 43       	clr.b	r15		
  32:	54 4c 00 e1 	mov.b	-7936(r12),r4	;0xe100(r12)
  36:	05 00       	.word	0x0005;	????	
  38:	00 42       	br	r2		
  3a:	43 53       	.word	0x5343;	????	Illegal as emulation instr
  3c:	43 54       	.word	0x5443;	????	Illegal as 2-op instr
  3e:	4c 31       	jn	$+666    	;abs 0x2d8
  40:	00 f5       	and	r5,	r0	
  42:	05 00       	.word	0x0005;	????	
  44:	00 42       	br	r2		
  46:	43 53       	.word	0x5343;	????	Illegal as emulation instr
  48:	43 54       	.word	0x5443;	????	Illegal as 2-op instr
  4a:	4c 32       	jn	$-870    	;abs 0xfce4
  4c:	00 09       	.word	0x0900;	????	
  4e:	06 00       	.word	0x0006;	????	
  50:	00 42       	br	r2		
  52:	43 53       	.word	0x5343;	????	Illegal as emulation instr
  54:	43 54       	.word	0x5443;	????	Illegal as 2-op instr
  56:	4c 33       	jn	$-358    	;abs 0xfef0
  58:	00 1d       	.word	0x1d00;	????	
  5a:	06 00       	.word	0x0006;	????	
  5c:	00 46       	br	r6		
  5e:	43 54       	.word	0x5443;	????	Illegal as 2-op instr
  60:	4c 31       	jn	$+666    	;abs 0x2fa
  62:	00 31       	jn	$+514    	;abs 0x264
  64:	06 00       	.word	0x0006;	????	
  66:	00 46       	br	r6		
  68:	43 54       	.word	0x5443;	????	Illegal as 2-op instr
  6a:	4c 32       	jn	$-870    	;abs 0xfd04
  6c:	00 45       	br	r5		
  6e:	06 00       	.word	0x0006;	????	
  70:	00 46       	br	r6		
  72:	43 54       	.word	0x5443;	????	Illegal as 2-op instr
  74:	4c 33       	jn	$-358    	;abs 0xff0e
  76:	00 59       	add	r9,	r0	
  78:	06 00       	.word	0x0006;	????	
  7a:	00 45       	br	r5		
  7c:	50 43       	br	#1		;r3 As==01
  7e:	54 4c 00 6d 	mov.b	27904(r12),r4	;0x6d00(r12)
  82:	06 00       	.word	0x0006;	????	
  84:	00 54       	add	r4,	r0	
  86:	41 30       	jn	$+132    	;abs 0x10a
  88:	49 56       	add.b	r6,	r9	
  8a:	00 81       	sub	r1,	r0	
  8c:	06 00       	.word	0x0006;	????	
  8e:	00 54       	add	r4,	r0	
  90:	41 30       	jn	$+132    	;abs 0x114
  92:	43 54       	.word	0x5443;	????	Illegal as 2-op instr
  94:	4c 00       	.word	0x004c;	????	
  96:	95 06       	.word	0x0695;	????	
  98:	00 00       	.word	0x0000;	????	
  9a:	54 41 30 52 	mov.b	21040(r1),r4	;0x5230(r1)
  9e:	00 a9       	dadd	r9,	r0	
  a0:	06 00       	.word	0x0006;	????	
  a2:	00 54       	add	r4,	r0	
  a4:	41 30       	jn	$+132    	;abs 0x128
  a6:	43 43       	clr.b	#0		;r3 As==00
  a8:	54 4c 30 00 	mov.b	48(r12),r4	;0x0030(r12)
  ac:	bd 06       	.word	0x06bd;	????	
  ae:	00 00       	.word	0x0000;	????	
  b0:	54 41 30 43 	mov.b	17200(r1),r4	;0x4330(r1)
  b4:	43 54       	.word	0x5443;	????	Illegal as 2-op instr
  b6:	4c 31       	jn	$+666    	;abs 0x350
  b8:	00 d1       	bis	r1,	r0	
  ba:	06 00       	.word	0x0006;	????	
  bc:	00 54       	add	r4,	r0	
  be:	41 30       	jn	$+132    	;abs 0x142
  c0:	43 43       	clr.b	#0		;r3 As==00
  c2:	52 30       	jn	$+166    	;abs 0x168
  c4:	00 e5       	xor	r5,	r0	
  c6:	06 00       	.word	0x0006;	????	
  c8:	00 54       	add	r4,	r0	
  ca:	41 30       	jn	$+132    	;abs 0x14e
  cc:	43 43       	clr.b	#0		;r3 As==00
  ce:	52 31       	jn	$+678    	;abs 0x374
  d0:	00 f9       	and	r9,	r0	
  d2:	06 00       	.word	0x0006;	????	
  d4:	00 74       	subc	r4,	r0	
  d6:	69 6d       	addc.b	@r13,	r9	
  d8:	65 72       	subc.b	#4,	r5	;r2 As==10
  da:	61 00       	.word	0x0061;	????	
  dc:	0e 07       	.word	0x070e;	????	
  de:	00 00       	.word	0x0000;	????	
  e0:	70 6f       	addc.b	@r15+,	r0	
  e2:	72 74       	subc.b	@r4+,	r2	
  e4:	31 00       	.word	0x0031;	????	
  e6:	22 07       	.word	0x0722;	????	
  e8:	00 00       	.word	0x0000;	????	
  ea:	70 6f       	addc.b	@r15+,	r0	
  ec:	72 74       	subc.b	@r4+,	r2	
  ee:	32 00       	.word	0x0032;	????	
  f0:	36 07       	.word	0x0736;	????	
  f2:	00 00       	.word	0x0000;	????	
  f4:	50 31       	jn	$+674    	;abs 0x396
  f6:	49 4e       	mov.b	r14,	r9	
  f8:	00 4a       	br	r10		
  fa:	07 00       	.word	0x0007;	????	
  fc:	00 50       	rla	r0		
  fe:	31 4f       	mov	@r15+,	r1	
 100:	55 54 00 5e 	add.b	24064(r4),r5	;0x5e00(r4)
 104:	07 00       	.word	0x0007;	????	
 106:	00 50       	rla	r0		
 108:	31 44       	mov	@r4+,	r1	
 10a:	49 52       	add.b	r2,	r9	
 10c:	00 72       	subc	r2,	r0	
 10e:	07 00       	.word	0x0007;	????	
 110:	00 50       	rla	r0		
 112:	31 49       	mov	@r9+,	r1	
 114:	46 47       	mov.b	r7,	r6	
 116:	00 86       	sub	r6,	r0	
 118:	07 00       	.word	0x0007;	????	
 11a:	00 50       	rla	r0		
 11c:	31 49       	mov	@r9+,	r1	
 11e:	45 53       	add.b	#0,	r5	;r3 As==00
 120:	00 9a       	cmp	r10,	r0	
 122:	07 00       	.word	0x0007;	????	
 124:	00 50       	rla	r0		
 126:	31 49       	mov	@r9+,	r1	
 128:	45 00       	.word	0x0045;	????	
 12a:	ae 07       	.word	0x07ae;	????	
 12c:	00 00       	.word	0x0000;	????	
 12e:	50 31       	jn	$+674    	;abs 0x3d0
 130:	53 45       	.word	0x4553;	????	Illegal as 2-op instr
 132:	4c 00       	.word	0x004c;	????	
 134:	c2 07       	.word	0x07c2;	????	
 136:	00 00       	.word	0x0000;	????	
 138:	50 31       	jn	$+674    	;abs 0x3da
 13a:	52 45 4e 00 	mov.b	78(r5),	r2	;0x004e(r5)
 13e:	d6 07       	.word	0x07d6;	????	
 140:	00 00       	.word	0x0000;	????	
 142:	50 32       	jn	$-862    	;abs 0xfde4
 144:	49 4e       	mov.b	r14,	r9	
 146:	00 ea       	xor	r10,	r0	
 148:	07 00       	.word	0x0007;	????	
 14a:	00 50       	rla	r0		
 14c:	32 4f       	mov	@r15+,	r2	
 14e:	55 54 00 fe 	add.b	-512(r4),r5	;0xfe00(r4)
 152:	07 00       	.word	0x0007;	????	
 154:	00 50       	rla	r0		
 156:	32 44       	mov	@r4+,	r2	
 158:	49 52       	add.b	r2,	r9	
 15a:	00 12       	push	r0		
 15c:	08 00       	.word	0x0008;	????	
 15e:	00 50       	rla	r0		
 160:	32 49       	mov	@r9+,	r2	
 162:	46 47       	mov.b	r7,	r6	
 164:	00 26       	jz	$-1022   	;abs 0xfd66
 166:	08 00       	.word	0x0008;	????	
 168:	00 50       	rla	r0		
 16a:	32 49       	mov	@r9+,	r2	
 16c:	45 53       	add.b	#0,	r5	;r3 As==00
 16e:	00 3a       	jl	$-1022   	;abs 0xfd70
 170:	08 00       	.word	0x0008;	????	
 172:	00 50       	rla	r0		
 174:	32 49       	mov	@r9+,	r2	
 176:	45 00       	.word	0x0045;	????	
 178:	4e 08       	.word	0x084e;	????	
 17a:	00 00       	.word	0x0000;	????	
 17c:	50 32       	jn	$-862    	;abs 0xfe1e
 17e:	53 45       	.word	0x4553;	????	Illegal as 2-op instr
 180:	4c 00       	.word	0x004c;	????	
 182:	62 08       	.word	0x0862;	????	
 184:	00 00       	.word	0x0000;	????	
 186:	50 32       	jn	$-862    	;abs 0xfe28
 188:	52 45 4e 00 	mov.b	78(r5),	r2	;0x004e(r5)
 18c:	76 08       	.word	0x0876;	????	
 18e:	00 00       	.word	0x0000;	????	
 190:	41 44       	mov.b	r4,	r1	
 192:	43 31       	jn	$+648    	;abs 0x41a
 194:	30 44       	br	@r4+		
 196:	54 43       	mov.b	#1,	r4	;r3 As==01
 198:	30 00       	.word	0x0030;	????	
 19a:	8a 08       	.word	0x088a;	????	
 19c:	00 00       	.word	0x0000;	????	
 19e:	41 44       	mov.b	r4,	r1	
 1a0:	43 31       	jn	$+648    	;abs 0x428
 1a2:	30 44       	br	@r4+		
 1a4:	54 43       	mov.b	#1,	r4	;r3 As==01
 1a6:	31 00       	.word	0x0031;	????	
 1a8:	9e 08       	.word	0x089e;	????	
 1aa:	00 00       	.word	0x0000;	????	
 1ac:	41 44       	mov.b	r4,	r1	
 1ae:	43 31       	jn	$+648    	;abs 0x436
 1b0:	30 41       	ret			
 1b2:	45 30       	jn	$+140    	;abs 0x23e
 1b4:	00 b2       	bit	r2,	r0	
 1b6:	08 00       	.word	0x0008;	????	
 1b8:	00 41       	br	r1		
 1ba:	44 43       	clr.b	r4		
 1bc:	31 30       	jn	$+100    	;abs 0x220
 1be:	43 54       	.word	0x5443;	????	Illegal as 2-op instr
 1c0:	4c 30       	jn	$+154    	;abs 0x25a
 1c2:	00 c6       	bic	r6,	r0	
 1c4:	08 00       	.word	0x0008;	????	
 1c6:	00 41       	br	r1		
 1c8:	44 43       	clr.b	r4		
 1ca:	31 30       	jn	$+100    	;abs 0x22e
 1cc:	43 54       	.word	0x5443;	????	Illegal as 2-op instr
 1ce:	4c 31       	jn	$+666    	;abs 0x468
 1d0:	00 da       	bis	r10,	r0	
 1d2:	08 00       	.word	0x0008;	????	
 1d4:	00 41       	br	r1		
 1d6:	44 43       	clr.b	r4		
 1d8:	31 30       	jn	$+100    	;abs 0x23c
 1da:	4d 45       	mov.b	r5,	r13	
 1dc:	4d 00       	.word	0x004d;	????	
 1de:	ee 08       	.word	0x08ee;	????	
 1e0:	00 00       	.word	0x0000;	????	
 1e2:	41 44       	mov.b	r4,	r1	
 1e4:	43 31       	jn	$+648    	;abs 0x46c
 1e6:	30 53       	add	#-1,	r0	;r3 As==11
 1e8:	41 00       	.word	0x0041;	????	
 1ea:	02 09       	.word	0x0902;	????	
 1ec:	00 00       	.word	0x0000;	????	
 1ee:	61 64       	addc.b	@r4,	r1	
 1f0:	63 31       	jn	$+712    	;abs 0x4b8
 1f2:	30 00       	.word	0x0030;	????	
 1f4:	16 09       	.word	0x0916;	????	
 1f6:	00 00       	.word	0x0000;	????	
 1f8:	55 53       	inc.b	r5		
 1fa:	49 43       	clr.b	r9		
 1fc:	54 4c 30 00 	mov.b	48(r12),r4	;0x0030(r12)
 200:	2a 09       	.word	0x092a;	????	
 202:	00 00       	.word	0x0000;	????	
 204:	55 53       	inc.b	r5		
 206:	49 43       	clr.b	r9		
 208:	54 4c 31 00 	mov.b	49(r12),r4	;0x0031(r12)
 20c:	3e 09       	.word	0x093e;	????	
 20e:	00 00       	.word	0x0000;	????	
 210:	55 53       	inc.b	r5		
 212:	49 43       	clr.b	r9		
 214:	4b 43       	clr.b	r11		
 216:	54 4c 00 52 	mov.b	20992(r12),r4	;0x5200(r12)
 21a:	09 00       	.word	0x0009;	????	
 21c:	00 55       	add	r5,	r0	
 21e:	53 49       	.word	0x4953;	????	Illegal as 2-op instr
 220:	43 4e       	.word	0x4e43;	????	Illegal as 2-op instr
 222:	54 00       	.word	0x0054;	????	
 224:	66 09       	.word	0x0966;	????	
 226:	00 00       	.word	0x0000;	????	
 228:	55 53       	inc.b	r5		
 22a:	49 53       	add.b	#0,	r9	;r3 As==00
 22c:	52 4c 00 7a 	mov.b	31232(r12),r2	;0x7a00(r12)
 230:	09 00       	.word	0x0009;	????	
 232:	00 55       	add	r5,	r0	
 234:	53 49       	.word	0x4953;	????	Illegal as 2-op instr
 236:	53 52       	.word	0x5253;	????	Illegal as 2-op instr
 238:	48 00       	.word	0x0048;	????	
 23a:	8e 09       	.word	0x098e;	????	
 23c:	00 00       	.word	0x0000;	????	
 23e:	55 53       	inc.b	r5		
 240:	49 43       	clr.b	r9		
 242:	54 4c 00 a2 	mov.b	-24064(r12),r4	;0xa200(r12)
 246:	09 00       	.word	0x0009;	????	
 248:	00 55       	add	r5,	r0	
 24a:	53 49       	.word	0x4953;	????	Illegal as 2-op instr
 24c:	43 43       	clr.b	#0		;r3 As==00
 24e:	54 4c 00 b6 	mov.b	-18944(r12),r4	;0xb600(r12)
 252:	09 00       	.word	0x0009;	????	
 254:	00 55       	add	r5,	r0	
 256:	53 49       	.word	0x4953;	????	Illegal as 2-op instr
 258:	53 52       	.word	0x5253;	????	Illegal as 2-op instr
 25a:	00 ca       	bic	r10,	r0	
 25c:	09 00       	.word	0x0009;	????	
 25e:	00 57       	add	r7,	r0	
 260:	44 54       	rla.b	r4		
 262:	43 54       	.word	0x5443;	????	Illegal as 2-op instr
 264:	4c 00       	.word	0x004c;	????	
 266:	de 09       	.word	0x09de;	????	
 268:	00 00       	.word	0x0000;	????	
 26a:	49 45       	mov.b	r5,	r9	
 26c:	31 00       	.word	0x0031;	????	
 26e:	f2 09       	.word	0x09f2;	????	
 270:	00 00       	.word	0x0000;	????	
 272:	49 46       	mov.b	r6,	r9	
 274:	47 31       	jn	$+656    	;abs 0x504
 276:	00 06       	.word	0x0600;	????	
 278:	0a 00       	.word	0x000a;	????	
 27a:	00 43       	clr	r0		
 27c:	41 4c       	mov.b	r12,	r1	
 27e:	44 43       	clr.b	r4		
 280:	4f 5f       	rla.b	r15		
 282:	31 36       	jge	$-924    	;abs 0xfee6
 284:	4d 48       	mov.b	r8,	r13	
 286:	5a 00       	.word	0x005a;	????	
 288:	1a 0a       	.word	0x0a1a;	????	
 28a:	00 00       	.word	0x0000;	????	
 28c:	43 41       	.word	0x4143;	????	Illegal as 2-op instr
 28e:	4c 42       	mov.b	r2,	r12	
 290:	43 31       	jn	$+648    	;abs 0x518
 292:	5f 31       	jn	$+704    	;abs 0x552
 294:	36 4d       	mov	@r13+,	r6	
 296:	48 5a       	add.b	r10,	r8	
 298:	00 2e       	jc	$-1022   	;abs 0xfe9a
 29a:	0a 00       	.word	0x000a;	????	
 29c:	00 43       	clr	r0		
 29e:	41 4c       	mov.b	r12,	r1	
 2a0:	44 43       	clr.b	r4		
 2a2:	4f 5f       	rla.b	r15		
 2a4:	31 32       	jn	$-924    	;abs 0xff08
 2a6:	4d 48       	mov.b	r8,	r13	
 2a8:	5a 00       	.word	0x005a;	????	
 2aa:	42 0a       	.word	0x0a42;	????	
 2ac:	00 00       	.word	0x0000;	????	
 2ae:	43 41       	.word	0x4143;	????	Illegal as 2-op instr
 2b0:	4c 42       	mov.b	r2,	r12	
 2b2:	43 31       	jn	$+648    	;abs 0x53a
 2b4:	5f 31       	jn	$+704    	;abs 0x574
 2b6:	32 4d       	mov	@r13+,	r2	
 2b8:	48 5a       	add.b	r10,	r8	
 2ba:	00 56       	add	r6,	r0	
 2bc:	0a 00       	.word	0x000a;	????	
 2be:	00 43       	clr	r0		
 2c0:	41 4c       	mov.b	r12,	r1	
 2c2:	44 43       	clr.b	r4		
 2c4:	4f 5f       	rla.b	r15		
 2c6:	38 4d       	mov	@r13+,	r8	
 2c8:	48 5a       	add.b	r10,	r8	
 2ca:	00 6a       	addc	r10,	r0	
 2cc:	0a 00       	.word	0x000a;	????	
 2ce:	00 43       	clr	r0		
 2d0:	41 4c       	mov.b	r12,	r1	
 2d2:	42 43       	clr.b	r2		
 2d4:	31 5f       	add	@r15+,	r1	
 2d6:	38 4d       	mov	@r13+,	r8	
 2d8:	48 5a       	add.b	r10,	r8	
 2da:	00 7e       	subc	r14,	r0	
 2dc:	0a 00       	.word	0x000a;	????	
 2de:	00 43       	clr	r0		
 2e0:	41 4c       	mov.b	r12,	r1	
 2e2:	44 43       	clr.b	r4		
 2e4:	4f 5f       	rla.b	r15		
 2e6:	31 4d       	mov	@r13+,	r1	
 2e8:	48 5a       	add.b	r10,	r8	
 2ea:	00 92       	cmp	r2,	r0	
 2ec:	0a 00       	.word	0x000a;	????	
 2ee:	00 43       	clr	r0		
 2f0:	41 4c       	mov.b	r12,	r1	
 2f2:	42 43       	clr.b	r2		
 2f4:	31 5f       	add	@r15+,	r1	
 2f6:	31 4d       	mov	@r13+,	r1	
 2f8:	48 5a       	add.b	r10,	r8	
 2fa:	00 00       	.word	0x0000;	????	
 2fc:	00 00       	.word	0x0000;	????	
	...

Disassembly of section .debug_info:

00000000 <.debug_info>:
   0:	a3 0a       	.word	0x0aa3;	????	
   2:	00 00       	.word	0x0000;	????	
   4:	02 00       	.word	0x0002;	????	
   6:	00 00       	.word	0x0000;	????	
   8:	00 00       	.word	0x0000;	????	
   a:	02 01       	.word	0x0102;	????	
   c:	94 00       	.word	0x0094;	????	
   e:	00 00       	.word	0x0000;	????	
  10:	01 69       	addc	r9,	r1	
  12:	02 00       	.word	0x0002;	????	
  14:	00 0b       	.word	0x0b00;	????	
  16:	04 00       	.word	0x0004;	????	
  18:	00 34       	jge	$+2      	;abs 0x1a
  1a:	f8 b4 f8 00 	bit.b	@r4+,	248(r8)	;0x00f8(r8)
  1e:	00 00       	.word	0x0000;	????	
  20:	00 02       	.word	0x0200;	????	
  22:	01 06       	.word	0x0601;	????	
  24:	77 03       	.word	0x0377;	????	
  26:	00 00       	.word	0x0000;	????	
  28:	02 01       	.word	0x0102;	????	
  2a:	08 75       	subc	r5,	r8	
  2c:	03 00       	.word	0x0003;	????	
  2e:	00 03       	.word	0x0300;	????	
  30:	02 05       	.word	0x0502;	????	
  32:	69 6e       	addc.b	@r14,	r9	
  34:	74 00       	.word	0x0074;	????	
  36:	02 02       	.word	0x0202;	????	
  38:	07 7b       	subc	r11,	r7	
  3a:	00 00       	.word	0x0000;	????	
  3c:	00 02       	.word	0x0200;	????	
  3e:	04 05       	.word	0x0504;	????	
  40:	bc 00       	.word	0x00bc;	????	
  42:	00 00       	.word	0x0000;	????	
  44:	02 04       	.word	0x0402;	????	
  46:	07 76       	subc	r6,	r7	
  48:	00 00       	.word	0x0000;	????	
  4a:	00 02       	.word	0x0200;	????	
  4c:	08 05       	.word	0x0508;	????	
  4e:	b7 00       	.word	0x00b7;	????	
  50:	00 00       	.word	0x0000;	????	
  52:	02 08       	.word	0x0802;	????	
  54:	07 71       	subc	r1,	r7	
  56:	00 00       	.word	0x0000;	????	
  58:	00 04       	.word	0x0400;	????	
  5a:	02 03       	.word	0x0302;	????	
  5c:	1c 01       	.word	0x011c;	????	
  5e:	e1 00       	.word	0x00e1;	????	
  60:	00 00       	.word	0x0000;	????	
  62:	05 53       	add	#0,	r5	;r3 As==00
  64:	03 00       	.word	0x0003;	????	
  66:	00 03       	.word	0x0300;	????	
  68:	1e 01       	.word	0x011e;	????	
  6a:	e1 00       	.word	0x00e1;	????	
  6c:	00 00       	.word	0x0000;	????	
  6e:	02 01       	.word	0x0102;	????	
  70:	0f 02       	.word	0x020f;	????	
  72:	23 00       	.word	0x0023;	????	
  74:	05 ba       	bit	r10,	r5	
  76:	02 00       	.word	0x0002;	????	
  78:	00 03       	.word	0x0300;	????	
  7a:	1f 01       	.word	0x011f;	????	
  7c:	e1 00       	.word	0x00e1;	????	
  7e:	00 00       	.word	0x0000;	????	
  80:	02 01       	.word	0x0102;	????	
  82:	0e 02       	.word	0x020e;	????	
  84:	23 00       	.word	0x0023;	????	
  86:	05 db       	bis	r11,	r5	
  88:	02 00       	.word	0x0002;	????	
  8a:	00 03       	.word	0x0300;	????	
  8c:	20 01       	.word	0x0120;	????	
  8e:	e1 00       	.word	0x00e1;	????	
  90:	00 00       	.word	0x0000;	????	
  92:	02 01       	.word	0x0102;	????	
  94:	0d 02       	.word	0x020d;	????	
  96:	23 00       	.word	0x0023;	????	
  98:	05 8c       	sub	r12,	r5	
  9a:	01 00       	.word	0x0001;	????	
  9c:	00 03       	.word	0x0300;	????	
  9e:	21 01       	.word	0x0121;	????	
  a0:	e1 00       	.word	0x00e1;	????	
  a2:	00 00       	.word	0x0000;	????	
  a4:	02 01       	.word	0x0102;	????	
  a6:	0c 02       	.word	0x020c;	????	
  a8:	23 00       	.word	0x0023;	????	
  aa:	05 00       	.word	0x0005;	????	
  ac:	00 00       	.word	0x0000;	????	
  ae:	00 03       	.word	0x0300;	????	
  b0:	22 01       	.word	0x0122;	????	
  b2:	e1 00       	.word	0x00e1;	????	
  b4:	00 00       	.word	0x0000;	????	
  b6:	02 02       	.word	0x0202;	????	
  b8:	0a 02       	.word	0x020a;	????	
  ba:	23 00       	.word	0x0023;	????	
  bc:	05 b5       	bit	r5,	r5	
  be:	02 00       	.word	0x0002;	????	
  c0:	00 03       	.word	0x0300;	????	
  c2:	23 01       	.word	0x0123;	????	
  c4:	e1 00       	.word	0x00e1;	????	
  c6:	00 00       	.word	0x0000;	????	
  c8:	02 02       	.word	0x0202;	????	
  ca:	08 02       	.word	0x0208;	????	
  cc:	23 00       	.word	0x0023;	????	
  ce:	05 b0       	bit	r0,	r5	
  d0:	00 00       	.word	0x0000;	????	
  d2:	00 03       	.word	0x0300;	????	
  d4:	24 01       	.word	0x0124;	????	
  d6:	e1 00       	.word	0x00e1;	????	
  d8:	00 00       	.word	0x0000;	????	
  da:	02 02       	.word	0x0202;	????	
  dc:	0e 02       	.word	0x020e;	????	
  de:	23 01       	.word	0x0123;	????	
  e0:	00 06       	.word	0x0600;	????	
  e2:	36 00       	.word	0x0036;	????	
  e4:	00 00       	.word	0x0000;	????	
  e6:	07 c5       	bic	r5,	r7	
  e8:	02 00       	.word	0x0002;	????	
  ea:	00 03       	.word	0x0300;	????	
  ec:	25 01       	.word	0x0125;	????	
  ee:	59 00       	.word	0x0059;	????	
  f0:	00 00       	.word	0x0000;	????	
  f2:	04 02       	.word	0x0204;	????	
  f4:	03 27       	jz	$-504    	;abs 0xfefc
  f6:	01 d3       	bis	#0,	r1	;r3 As==00
  f8:	01 00       	.word	0x0001;	????	
  fa:	00 05       	.word	0x0500;	????	
  fc:	3e 02       	.word	0x023e;	????	
  fe:	00 00       	.word	0x0000;	????	
 100:	03 29       	jnc	$+520    	;abs 0x308
 102:	01 e1       	xor	r1,	r1	
 104:	00 00       	.word	0x0000;	????	
 106:	00 02       	.word	0x0200;	????	
 108:	01 0f       	.word	0x0f01;	????	
 10a:	02 23       	jnz	$-506    	;abs 0xff10
 10c:	00 08       	.word	0x0800;	????	
 10e:	63 6f       	.word	0x6f63;	????	Illegal as 2-op instr
 110:	76 00       	.word	0x0076;	????	
 112:	03 2a       	jnc	$-1016   	;abs 0xfd1a
 114:	01 e1       	xor	r1,	r1	
 116:	00 00       	.word	0x0000;	????	
 118:	00 02       	.word	0x0200;	????	
 11a:	01 0e       	.word	0x0e01;	????	
 11c:	02 23       	jnz	$-506    	;abs 0xff22
 11e:	00 08       	.word	0x0800;	????	
 120:	6f 75       	subc.b	@r5,	r15	
 122:	74 00       	.word	0x0074;	????	
 124:	03 2b       	jnc	$-504    	;abs 0xff2c
 126:	01 e1       	xor	r1,	r1	
 128:	00 00       	.word	0x0000;	????	
 12a:	00 02       	.word	0x0200;	????	
 12c:	01 0d       	.word	0x0d01;	????	
 12e:	02 23       	jnz	$-506    	;abs 0xff34
 130:	00 08       	.word	0x0800;	????	
 132:	63 63       	.word	0x6363;	????	Illegal as 2-op instr
 134:	69 00       	.word	0x0069;	????	
 136:	03 2c       	jc	$+8      	;abs 0x13e
 138:	01 e1       	xor	r1,	r1	
 13a:	00 00       	.word	0x0000;	????	
 13c:	00 02       	.word	0x0200;	????	
 13e:	01 0c       	.word	0x0c01;	????	
 140:	02 23       	jnz	$-506    	;abs 0xff46
 142:	00 05       	.word	0x0500;	????	
 144:	d7 03       	.word	0x03d7;	????	
 146:	00 00       	.word	0x0000;	????	
 148:	03 2d       	jc	$+520    	;abs 0x350
 14a:	01 e1       	xor	r1,	r1	
 14c:	00 00       	.word	0x0000;	????	
 14e:	00 02       	.word	0x0200;	????	
 150:	01 0b       	.word	0x0b01;	????	
 152:	02 23       	jnz	$-506    	;abs 0xff58
 154:	00 05       	.word	0x0500;	????	
 156:	5a 00       	.word	0x005a;	????	
 158:	00 00       	.word	0x0000;	????	
 15a:	03 2e       	jc	$-1016   	;abs 0xfd62
 15c:	01 e1       	xor	r1,	r1	
 15e:	00 00       	.word	0x0000;	????	
 160:	00 02       	.word	0x0200;	????	
 162:	03 08       	.word	0x0803;	????	
 164:	02 23       	jnz	$-506    	;abs 0xff6a
 166:	00 08       	.word	0x0800;	????	
 168:	63 61       	.word	0x6163;	????	Illegal as 2-op instr
 16a:	70 00       	.word	0x0070;	????	
 16c:	03 2f       	jc	$-504    	;abs 0xff74
 16e:	01 e1       	xor	r1,	r1	
 170:	00 00       	.word	0x0000;	????	
 172:	00 02       	.word	0x0200;	????	
 174:	01 0f       	.word	0x0f01;	????	
 176:	02 23       	jnz	$-506    	;abs 0xff7c
 178:	01 05       	.word	0x0501;	????	
 17a:	8c 01       	.word	0x018c;	????	
 17c:	00 00       	.word	0x0000;	????	
 17e:	03 30       	jn	$+8      	;abs 0x186
 180:	01 e1       	xor	r1,	r1	
 182:	00 00       	.word	0x0000;	????	
 184:	00 02       	.word	0x0200;	????	
 186:	01 0e       	.word	0x0e01;	????	
 188:	02 23       	jnz	$-506    	;abs 0xff8e
 18a:	01 05       	.word	0x0501;	????	
 18c:	8e 02       	.word	0x028e;	????	
 18e:	00 00       	.word	0x0000;	????	
 190:	03 31       	jn	$+520    	;abs 0x398
 192:	01 e1       	xor	r1,	r1	
 194:	00 00       	.word	0x0000;	????	
 196:	00 02       	.word	0x0200;	????	
 198:	01 0d       	.word	0x0d01;	????	
 19a:	02 23       	jnz	$-506    	;abs 0xffa0
 19c:	01 08       	.word	0x0801;	????	
 19e:	73 63       	.word	0x6373;	????	Illegal as 2-op instr
 1a0:	73 00       	.word	0x0073;	????	
 1a2:	03 32       	jn	$-1016   	;abs 0xfdaa
 1a4:	01 e1       	xor	r1,	r1	
 1a6:	00 00       	.word	0x0000;	????	
 1a8:	00 02       	.word	0x0200;	????	
 1aa:	01 0c       	.word	0x0c01;	????	
 1ac:	02 23       	jnz	$-506    	;abs 0xffb2
 1ae:	01 05       	.word	0x0501;	????	
 1b0:	06 04       	.word	0x0406;	????	
 1b2:	00 00       	.word	0x0000;	????	
 1b4:	03 33       	jn	$-504    	;abs 0xffbc
 1b6:	01 e1       	xor	r1,	r1	
 1b8:	00 00       	.word	0x0000;	????	
 1ba:	00 02       	.word	0x0200;	????	
 1bc:	02 0a       	.word	0x0a02;	????	
 1be:	02 23       	jnz	$-506    	;abs 0xffc4
 1c0:	01 08       	.word	0x0801;	????	
 1c2:	63 6d       	.word	0x6d63;	????	Illegal as 2-op instr
 1c4:	00 03       	.word	0x0300;	????	
 1c6:	34 01       	.word	0x0134;	????	
 1c8:	e1 00       	.word	0x00e1;	????	
 1ca:	00 00       	.word	0x0000;	????	
 1cc:	02 02       	.word	0x0202;	????	
 1ce:	08 02       	.word	0x0208;	????	
 1d0:	23 01       	.word	0x0123;	????	
 1d2:	00 07       	.word	0x0700;	????	
 1d4:	3c 04       	.word	0x043c;	????	
 1d6:	00 00       	.word	0x0000;	????	
 1d8:	03 35       	jge	$+520    	;abs 0x3e0
 1da:	01 f2       	and	r2,	r1	
 1dc:	00 00       	.word	0x0000;	????	
 1de:	00 09       	.word	0x0900;	????	
 1e0:	4c 04       	.word	0x044c;	????	
 1e2:	00 00       	.word	0x0000;	????	
 1e4:	16 03       	.word	0x0316;	????	
 1e6:	39 01       	.word	0x0139;	????	
 1e8:	65 02       	.word	0x0265;	????	
 1ea:	00 00       	.word	0x0000;	????	
 1ec:	0a 63       	adc	r10		
 1ee:	74 6c       	addc.b	@r12+,	r4	
 1f0:	00 03       	.word	0x0300;	????	
 1f2:	3a 01       	.word	0x013a;	????	
 1f4:	e6 00       	.word	0x00e6;	????	
 1f6:	00 00       	.word	0x0000;	????	
 1f8:	02 23       	jnz	$-506    	;abs 0xfffe
 1fa:	00 0b       	.word	0x0b00;	????	
 1fc:	88 00       	.word	0x0088;	????	
 1fe:	00 00       	.word	0x0000;	????	
 200:	03 3b       	jl	$-504    	;abs 0x8
 202:	01 d3       	bis	#0,	r1	;r3 As==00
 204:	01 00       	.word	0x0001;	????	
 206:	00 02       	.word	0x0200;	????	
 208:	23 02       	.word	0x0223;	????	
 20a:	0b 8e       	sub	r14,	r11	
 20c:	00 00       	.word	0x0000;	????	
 20e:	00 03       	.word	0x0300;	????	
 210:	3c 01       	.word	0x013c;	????	
 212:	d3 01       	.word	0x01d3;	????	
 214:	00 00       	.word	0x0000;	????	
 216:	02 23       	jnz	$-506    	;abs 0x1c
 218:	04 0b       	.word	0x0b04;	????	
 21a:	cd 02       	.word	0x02cd;	????	
 21c:	00 00       	.word	0x0000;	????	
 21e:	03 40       	.word	0x4003;	????	Illegal as 2-op instr
 220:	01 78       	subc	r8,	r1	
 222:	02 00       	.word	0x0002;	????	
 224:	00 02       	.word	0x0200;	????	
 226:	23 06       	.word	0x0623;	????	
 228:	0b d4       	bis	r4,	r11	
 22a:	02 00       	.word	0x0002;	????	
 22c:	00 03       	.word	0x0300;	????	
 22e:	42 01       	.word	0x0142;	????	
 230:	8d 02       	.word	0x028d;	????	
 232:	00 00       	.word	0x0000;	????	
 234:	02 23       	jnz	$-506    	;abs 0x3a
 236:	08 0a       	.word	0x0a08;	????	
 238:	74 61       	addc.b	@r1+,	r4	
 23a:	72 00       	.word	0x0072;	????	
 23c:	03 43       	nop			
 23e:	01 e1       	xor	r1,	r1	
 240:	00 00       	.word	0x0000;	????	
 242:	00 02       	.word	0x0200;	????	
 244:	23 10       	rrc	#2		;r3 As==10
 246:	0b ea       	xor	r10,	r11	
 248:	01 00       	.word	0x0001;	????	
 24a:	00 03       	.word	0x0300;	????	
 24c:	44 01       	.word	0x0144;	????	
 24e:	e1 00       	.word	0x00e1;	????	
 250:	00 00       	.word	0x0000;	????	
 252:	02 23       	jnz	$-506    	;abs 0x58
 254:	12 0b       	.word	0x0b12;	????	
 256:	f1 01       	.word	0x01f1;	????	
 258:	00 00       	.word	0x0000;	????	
 25a:	03 45       	.word	0x4503;	????	Illegal as 2-op instr
 25c:	01 e1       	xor	r1,	r1	
 25e:	00 00       	.word	0x0000;	????	
 260:	00 02       	.word	0x0200;	????	
 262:	23 14       	.word	0x1423;	????	
 264:	00 0c       	.word	0x0c00;	????	
 266:	36 00       	.word	0x0036;	????	
 268:	00 00       	.word	0x0000;	????	
 26a:	75 02       	.word	0x0275;	????	
 26c:	00 00       	.word	0x0000;	????	
 26e:	0d 75       	subc	r5,	r13	
 270:	02 00       	.word	0x0002;	????	
 272:	00 00       	.word	0x0000;	????	
 274:	00 0e       	.word	0x0e00;	????	
 276:	02 07       	.word	0x0702;	????	
 278:	06 65       	addc	r5,	r6	
 27a:	02 00       	.word	0x0002;	????	
 27c:	00 0c       	.word	0x0c00;	????	
 27e:	36 00       	.word	0x0036;	????	
 280:	00 00       	.word	0x0000;	????	
 282:	8d 02       	.word	0x028d;	????	
 284:	00 00       	.word	0x0000;	????	
 286:	0d 75       	subc	r5,	r13	
 288:	02 00       	.word	0x0002;	????	
 28a:	00 03       	.word	0x0300;	????	
 28c:	00 06       	.word	0x0600;	????	
 28e:	7d 02       	.word	0x027d;	????	
 290:	00 00       	.word	0x0000;	????	
 292:	0f 02       	.word	0x020f;	????	
 294:	04 1d       	.word	0x1d04;	????	
 296:	23 03       	.word	0x0323;	????	
 298:	00 00       	.word	0x0000;	????	
 29a:	10 a1 03 00 	dadd	3(r1),	r0	;0x0003(r1)
 29e:	00 04       	.word	0x0400;	????	
 2a0:	1e 28       	jnc	$+62     	;abs 0x2de
 2a2:	00 00       	.word	0x0000;	????	
 2a4:	00 01       	.word	0x0100;	????	
 2a6:	01 07       	.word	0x0701;	????	
 2a8:	02 23       	jnz	$-506    	;abs 0xae
 2aa:	00 10       	rrc	r0		
 2ac:	a6 03       	.word	0x03a6;	????	
 2ae:	00 00       	.word	0x0000;	????	
 2b0:	04 1f       	.word	0x1f04;	????	
 2b2:	28 00       	.word	0x0028;	????	
 2b4:	00 00       	.word	0x0000;	????	
 2b6:	01 01       	.word	0x0101;	????	
 2b8:	06 02       	.word	0x0206;	????	
 2ba:	23 00       	.word	0x0023;	????	
 2bc:	10 ab 03 00 	dadd	3(r11),	r0	;0x0003(r11)
 2c0:	00 04       	.word	0x0400;	????	
 2c2:	20 28       	jnc	$+66     	;abs 0x304
 2c4:	00 00       	.word	0x0000;	????	
 2c6:	00 01       	.word	0x0100;	????	
 2c8:	01 05       	.word	0x0501;	????	
 2ca:	02 23       	jnz	$-506    	;abs 0xd0
 2cc:	00 10       	rrc	r0		
 2ce:	b0 03       	.word	0x03b0;	????	
 2d0:	00 00       	.word	0x0000;	????	
 2d2:	04 21       	jnz	$+522    	;abs 0x4dc
 2d4:	28 00       	.word	0x0028;	????	
 2d6:	00 00       	.word	0x0000;	????	
 2d8:	01 01       	.word	0x0101;	????	
 2da:	04 02       	.word	0x0204;	????	
 2dc:	23 00       	.word	0x0023;	????	
 2de:	10 b5 03 00 	bit	3(r5),	r0	;0x0003(r5)
 2e2:	00 04       	.word	0x0400;	????	
 2e4:	22 28       	jnc	$+70     	;abs 0x32a
 2e6:	00 00       	.word	0x0000;	????	
 2e8:	00 01       	.word	0x0100;	????	
 2ea:	01 03       	.word	0x0301;	????	
 2ec:	02 23       	jnz	$-506    	;abs 0xf2
 2ee:	00 10       	rrc	r0		
 2f0:	ba 03       	.word	0x03ba;	????	
 2f2:	00 00       	.word	0x0000;	????	
 2f4:	04 23       	jnz	$-502    	;abs 0xfe
 2f6:	28 00       	.word	0x0028;	????	
 2f8:	00 00       	.word	0x0000;	????	
 2fa:	01 01       	.word	0x0101;	????	
 2fc:	02 02       	.word	0x0202;	????	
 2fe:	23 00       	.word	0x0023;	????	
 300:	10 bf 03 00 	bit	3(r15),	r0	;0x0003(r15)
 304:	00 04       	.word	0x0400;	????	
 306:	24 28       	jnc	$+74     	;abs 0x350
 308:	00 00       	.word	0x0000;	????	
 30a:	00 01       	.word	0x0100;	????	
 30c:	01 01       	.word	0x0101;	????	
 30e:	02 23       	jnz	$-506    	;abs 0x114
 310:	00 10       	rrc	r0		
 312:	c4 03       	.word	0x03c4;	????	
 314:	00 00       	.word	0x0000;	????	
 316:	04 25       	jz	$+522    	;abs 0x520
 318:	28 00       	.word	0x0028;	????	
 31a:	00 00       	.word	0x0000;	????	
 31c:	01 01       	.word	0x0101;	????	
 31e:	00 02       	.word	0x0200;	????	
 320:	23 00       	.word	0x0023;	????	
 322:	00 11       	rra	r0		
 324:	92 01       	.word	0x0192;	????	
 326:	00 00       	.word	0x0000;	????	
 328:	02 04       	.word	0x0402;	????	
 32a:	1b 46 03 00 	mov	3(r6),	r11	;0x0003(r6)
 32e:	00 12       	push	r0		
 330:	f8 01       	.word	0x01f8;	????	
 332:	00 00       	.word	0x0000;	????	
 334:	04 1c       	.word	0x1c04;	????	
 336:	46 03       	.word	0x0346;	????	
 338:	00 00       	.word	0x0000;	????	
 33a:	12 4c 00 00 	mov	0(r12),	r2	;0x0000(r12)
 33e:	00 04       	.word	0x0400;	????	
 340:	26 4b       	mov	@r11,	r6	
 342:	03 00       	.word	0x0003;	????	
 344:	00 00       	.word	0x0000;	????	
 346:	06 28       	jnc	$+14     	;abs 0x354
 348:	00 00       	.word	0x0000;	????	
 34a:	00 06       	.word	0x0600;	????	
 34c:	92 02       	.word	0x0292;	????	
 34e:	00 00       	.word	0x0000;	????	
 350:	13 14       	.word	0x1413;	????	
 352:	05 00       	.word	0x0005;	????	
 354:	00 04       	.word	0x0400;	????	
 356:	27 23       	jnz	$-432    	;abs 0x1a6
 358:	03 00       	.word	0x0003;	????	
 35a:	00 14       	.word	0x1400;	????	
 35c:	72 01       	.word	0x0172;	????	
 35e:	00 00       	.word	0x0000;	????	
 360:	10 04       	.word	0x0410;	????	
 362:	6c d6       	bis.b	@r6,	r12	
 364:	03 00       	.word	0x0003;	????	
 366:	00 15       	.word	0x1500;	????	
 368:	69 6e       	addc.b	@r14,	r9	
 36a:	00 04       	.word	0x0400;	????	
 36c:	6d 50       	add.b	@r0,	r13	
 36e:	03 00       	.word	0x0003;	????	
 370:	00 02       	.word	0x0200;	????	
 372:	23 00       	.word	0x0023;	????	
 374:	15 6f 75 74 	addc	29813(r15),r5	;0x7475(r15)
 378:	00 04       	.word	0x0400;	????	
 37a:	6e 50       	add.b	@r0,	r14	
 37c:	03 00       	.word	0x0003;	????	
 37e:	00 02       	.word	0x0200;	????	
 380:	23 02       	.word	0x0223;	????	
 382:	15 64 69 72 	addc	29289(r4),r5	;0x7269(r4)
 386:	00 04       	.word	0x0400;	????	
 388:	6f 50       	add.b	@r0,	r15	
 38a:	03 00       	.word	0x0003;	????	
 38c:	00 02       	.word	0x0200;	????	
 38e:	23 04       	.word	0x0423;	????	
 390:	15 69 66 67 	addc	26470(r9),r5	;0x6766(r9)
 394:	00 04       	.word	0x0400;	????	
 396:	70 50 03 00 	add.b	#3,	r0	;#0x0003
 39a:	00 02       	.word	0x0200;	????	
 39c:	23 06       	.word	0x0623;	????	
 39e:	15 69 65 73 	addc	29541(r9),r5	;0x7365(r9)
 3a2:	00 04       	.word	0x0400;	????	
 3a4:	71 50 03 00 	add.b	#3,	r1	;#0x0003
 3a8:	00 02       	.word	0x0200;	????	
 3aa:	23 08       	.word	0x0823;	????	
 3ac:	15 69 65 00 	addc	101(r9),r5	;0x0065(r9)
 3b0:	04 72       	subc	r2,	r4	
 3b2:	50 03       	.word	0x0350;	????	
 3b4:	00 00       	.word	0x0000;	????	
 3b6:	02 23       	jnz	$-506    	;abs 0x1bc
 3b8:	0a 15       	.word	0x150a;	????	
 3ba:	73 65       	.word	0x6573;	????	Illegal as 2-op instr
 3bc:	6c 00       	.word	0x006c;	????	
 3be:	04 73       	sbc	r4		
 3c0:	50 03       	.word	0x0350;	????	
 3c2:	00 00       	.word	0x0000;	????	
 3c4:	02 23       	jnz	$-506    	;abs 0x1ca
 3c6:	0c 15       	.word	0x150c;	????	
 3c8:	72 65       	addc.b	@r5+,	r2	
 3ca:	6e 00       	.word	0x006e;	????	
 3cc:	04 75       	subc	r5,	r4	
 3ce:	50 03       	.word	0x0350;	????	
 3d0:	00 00       	.word	0x0000;	????	
 3d2:	02 23       	jnz	$-506    	;abs 0x1d8
 3d4:	0e 00       	.word	0x000e;	????	
 3d6:	0f 02       	.word	0x020f;	????	
 3d8:	05 2c       	jc	$+12     	;abs 0x3e4
 3da:	89 04       	.word	0x0489;	????	
 3dc:	00 00       	.word	0x0000;	????	
 3de:	10 28       	jnc	$+34     	;abs 0x400
 3e0:	03 00       	.word	0x0003;	????	
 3e2:	00 05       	.word	0x0500;	????	
 3e4:	2e e1       	xor	@r1,	r14	
 3e6:	00 00       	.word	0x0000;	????	
 3e8:	00 02       	.word	0x0200;	????	
 3ea:	01 0f       	.word	0x0f01;	????	
 3ec:	02 23       	jnz	$-506    	;abs 0x1f2
 3ee:	00 16       	.word	0x1600;	????	
 3f0:	65 6e       	addc.b	@r14,	r5	
 3f2:	63 00       	.word	0x0063;	????	
 3f4:	05 2f       	jc	$-500    	;abs 0x200
 3f6:	e1 00       	.word	0x00e1;	????	
 3f8:	00 00       	.word	0x0000;	????	
 3fa:	02 01       	.word	0x0102;	????	
 3fc:	0e 02       	.word	0x020e;	????	
 3fe:	23 00       	.word	0x0023;	????	
 400:	10 28       	jnc	$+34     	;abs 0x422
 402:	05 00       	.word	0x0005;	????	
 404:	00 05       	.word	0x0500;	????	
 406:	30 e1       	xor	@r1+,	r0	
 408:	00 00       	.word	0x0000;	????	
 40a:	00 02       	.word	0x0200;	????	
 40c:	01 0d       	.word	0x0d01;	????	
 40e:	02 23       	jnz	$-506    	;abs 0x214
 410:	00 10       	rrc	r0		
 412:	7e 01       	.word	0x017e;	????	
 414:	00 00       	.word	0x0000;	????	
 416:	05 31       	jn	$+524    	;abs 0x622
 418:	e1 00       	.word	0x00e1;	????	
 41a:	00 00       	.word	0x0000;	????	
 41c:	02 01       	.word	0x0102;	????	
 41e:	0c 02       	.word	0x020c;	????	
 420:	23 00       	.word	0x0023;	????	
 422:	10 69 00 00 	addc	0(r9),	r0	;0x0000(r9)
 426:	00 05       	.word	0x0500;	????	
 428:	32 e1       	xor	@r1+,	r2	
 42a:	00 00       	.word	0x0000;	????	
 42c:	00 02       	.word	0x0200;	????	
 42e:	01 0b       	.word	0x0b01;	????	
 430:	02 23       	jnz	$-506    	;abs 0x236
 432:	00 10       	rrc	r0		
 434:	9b 03       	.word	0x039b;	????	
 436:	00 00       	.word	0x0000;	????	
 438:	05 33       	jn	$-500    	;abs 0x244
 43a:	e1 00       	.word	0x00e1;	????	
 43c:	00 00       	.word	0x0000;	????	
 43e:	02 01       	.word	0x0102;	????	
 440:	0a 02       	.word	0x020a;	????	
 442:	23 00       	.word	0x0023;	????	
 444:	10 31       	jn	$+546    	;abs 0x666
 446:	05 00       	.word	0x0005;	????	
 448:	00 05       	.word	0x0500;	????	
 44a:	34 e1       	xor	@r1+,	r4	
 44c:	00 00       	.word	0x0000;	????	
 44e:	00 02       	.word	0x0200;	????	
 450:	01 09       	.word	0x0901;	????	
 452:	02 23       	jnz	$-506    	;abs 0x258
 454:	00 16       	.word	0x1600;	????	
 456:	6d 73       	subc.b	#2,	r13	;r3 As==10
 458:	63 00       	.word	0x0063;	????	
 45a:	05 35       	jge	$+524    	;abs 0x666
 45c:	e1 00       	.word	0x00e1;	????	
 45e:	00 00       	.word	0x0000;	????	
 460:	02 01       	.word	0x0102;	????	
 462:	08 02       	.word	0x0208;	????	
 464:	23 00       	.word	0x0023;	????	
 466:	10 3e       	jmp	$-990    	;abs 0x88
 468:	03 00       	.word	0x0003;	????	
 46a:	00 05       	.word	0x0500;	????	
 46c:	36 e1       	xor	@r1+,	r6	
 46e:	00 00       	.word	0x0000;	????	
 470:	00 02       	.word	0x0200;	????	
 472:	04 0c       	.word	0x0c04;	????	
 474:	02 23       	jnz	$-506    	;abs 0x27a
 476:	01 10       	rrc	r1		
 478:	1d 02       	.word	0x021d;	????	
 47a:	00 00       	.word	0x0000;	????	
 47c:	05 37       	jge	$-500    	;abs 0x288
 47e:	e1 00       	.word	0x00e1;	????	
 480:	00 00       	.word	0x0000;	????	
 482:	02 04       	.word	0x0402;	????	
 484:	08 02       	.word	0x0208;	????	
 486:	23 01       	.word	0x0123;	????	
 488:	00 13       	reti			
 48a:	8f 03       	.word	0x038f;	????	
 48c:	00 00       	.word	0x0000;	????	
 48e:	05 38       	jl	$+12     	;abs 0x49a
 490:	d6 03       	.word	0x03d6;	????	
 492:	00 00       	.word	0x0000;	????	
 494:	0f 01       	.word	0x010f;	????	
 496:	05 3a       	jl	$-1012   	;abs 0xa2
 498:	e1 04       	.word	0x04e1;	????	
 49a:	00 00       	.word	0x0000;	????	
 49c:	10 e4 03 00 	xor	3(r4),	r0	;0x0003(r4)
 4a0:	00 05       	.word	0x0500;	????	
 4a2:	3c e1       	xor	@r1+,	r12	
 4a4:	00 00       	.word	0x0000;	????	
 4a6:	00 02       	.word	0x0200;	????	
 4a8:	01 0f       	.word	0x0f01;	????	
 4aa:	02 23       	jnz	$-506    	;abs 0x2b0
 4ac:	00 10       	rrc	r0		
 4ae:	21 05       	.word	0x0521;	????	
 4b0:	00 00       	.word	0x0000;	????	
 4b2:	05 3d       	jmp	$+524    	;abs 0x6be
 4b4:	e1 00       	.word	0x00e1;	????	
 4b6:	00 00       	.word	0x0000;	????	
 4b8:	02 02       	.word	0x0202;	????	
 4ba:	0d 02       	.word	0x020d;	????	
 4bc:	23 00       	.word	0x0023;	????	
 4be:	10 0d       	.word	0x0d10;	????	
 4c0:	03 00       	.word	0x0003;	????	
 4c2:	00 05       	.word	0x0500;	????	
 4c4:	3e e1       	xor	@r1+,	r14	
 4c6:	00 00       	.word	0x0000;	????	
 4c8:	00 02       	.word	0x0200;	????	
 4ca:	02 0b       	.word	0x0b02;	????	
 4cc:	02 23       	jnz	$-506    	;abs 0x2d2
 4ce:	00 10       	rrc	r0		
 4d0:	3b 01       	.word	0x013b;	????	
 4d2:	00 00       	.word	0x0000;	????	
 4d4:	05 3f       	jmp	$-500    	;abs 0x2e0
 4d6:	e1 00       	.word	0x00e1;	????	
 4d8:	00 00       	.word	0x0000;	????	
 4da:	02 03       	.word	0x0302;	????	
 4dc:	08 02       	.word	0x0208;	????	
 4de:	23 00       	.word	0x0023;	????	
 4e0:	00 13       	reti			
 4e2:	a9 02       	.word	0x02a9;	????	
 4e4:	00 00       	.word	0x0000;	????	
 4e6:	05 40       	mov	r0,	r5	
 4e8:	94 04       	.word	0x0494;	????	
 4ea:	00 00       	.word	0x0000;	????	
 4ec:	14 62 05 00 	addc	&0x0005,r4	
 4f0:	00 08       	.word	0x0800;	????	
 4f2:	05 43       	clr	r5		
 4f4:	30 05       	.word	0x0530;	????	
 4f6:	00 00       	.word	0x0000;	????	
 4f8:	17 89 00 00 	sub	0(r9),	r7	;0x0000(r9)
 4fc:	00 05       	.word	0x0500;	????	
 4fe:	44 89       	sub.b	r9,	r4	
 500:	04 00       	.word	0x0004;	????	
 502:	00 02       	.word	0x0200;	????	
 504:	23 00       	.word	0x0023;	????	
 506:	17 8f 00 00 	sub	0(r15),	r7	;0x0000(r15)
 50a:	00 05       	.word	0x0500;	????	
 50c:	45 e1       	xor.b	r1,	r5	
 50e:	04 00       	.word	0x0004;	????	
 510:	00 02       	.word	0x0200;	????	
 512:	23 02       	.word	0x0223;	????	
 514:	15 6d 65 6d 	addc	28005(r13),r5	;0x6d65(r13)
 518:	00 05       	.word	0x0500;	????	
 51a:	46 e1       	xor.b	r1,	r6	
 51c:	00 00       	.word	0x0000;	????	
 51e:	00 02       	.word	0x0200;	????	
 520:	23 04       	.word	0x0423;	????	
 522:	15 73       	subc	#1,	r5	;r3 As==01
 524:	61 00       	.word	0x0061;	????	
 526:	05 47       	mov	r7,	r5	
 528:	e1 00       	.word	0x00e1;	????	
 52a:	00 00       	.word	0x0000;	????	
 52c:	02 23       	jnz	$-506    	;abs 0x332
 52e:	06 00       	.word	0x0006;	????	
 530:	18 01       	.word	0x0118;	????	
 532:	1d 03       	.word	0x031d;	????	
 534:	00 00       	.word	0x0000;	????	
 536:	01 03       	.word	0x0301;	????	
 538:	01 19       	.word	0x1901;	????	
 53a:	30 05       	.word	0x0530;	????	
 53c:	00 00       	.word	0x0000;	????	
 53e:	34 f8       	and	@r8+,	r4	
 540:	40 f8       	and.b	r8,	r0	
 542:	02 71       	subc	r1,	r2	
 544:	02 1a       	.word	0x1a02;	????	
 546:	01 b7       	bit	r7,	r1	
 548:	01 00       	.word	0x0001;	????	
 54a:	00 01       	.word	0x0100;	????	
 54c:	0a 40       	mov	r0,	r10	
 54e:	f8 92 f8 02 	cmp.b	#8,	760(r8)	;r2 As==11, 0x02f8(r8)
 552:	71 02       	.word	0x0271;	????	
 554:	a9 05       	.word	0x05a9;	????	
 556:	00 00       	.word	0x0000;	????	
 558:	1b 4e f8 68 	mov	26872(r14),r11	;0x68f8(r14)
 55c:	f8 84 05 00 	sub.b	@r4+,	5(r8)	;0x0005(r8)
 560:	00 1c       	.word	0x1c00;	????	
 562:	78 00       	.word	0x0078;	????	
 564:	01 0e       	.word	0x0e01;	????	
 566:	2f 00       	.word	0x002f;	????	
 568:	00 00       	.word	0x0000;	????	
 56a:	00 00       	.word	0x0000;	????	
 56c:	00 00       	.word	0x0000;	????	
 56e:	1d 4e f8 5c 	mov	23800(r14),r13	;0x5cf8(r14)
 572:	f8 1e       	.word	0x1ef8;	????	
 574:	f1 02       	.word	0x02f1;	????	
 576:	00 00       	.word	0x0000;	????	
 578:	01 0e       	.word	0x0e01;	????	
 57a:	2f 00       	.word	0x002f;	????	
 57c:	00 00       	.word	0x0000;	????	
 57e:	0b 00       	.word	0x000b;	????	
 580:	00 00       	.word	0x0000;	????	
 582:	00 00       	.word	0x0000;	????	
 584:	1d 76 f8 92 	subc	-27912(r6),r13	;0x92f8(r6)
 588:	f8 1f       	.word	0x1ff8;	????	
 58a:	78 00       	.word	0x0078;	????	
 58c:	01 11       	rra	r1		
 58e:	2f 00       	.word	0x002f;	????	
 590:	00 00       	.word	0x0000;	????	
 592:	01 5f       	add	r15,	r1	
 594:	1d 76 f8 84 	subc	-31496(r6),r13	;0x84f8(r6)
 598:	f8 20       	jnz	$+498    	;abs 0x78a
 59a:	f1 02       	.word	0x02f1;	????	
 59c:	00 00       	.word	0x0000;	????	
 59e:	01 11       	rra	r1		
 5a0:	2f 00       	.word	0x002f;	????	
 5a2:	00 00       	.word	0x0000;	????	
 5a4:	01 5e       	add	r14,	r1	
 5a6:	00 00       	.word	0x0000;	????	
 5a8:	00 21       	jnz	$+514    	;abs 0x7aa
 5aa:	01 49       	mov	r9,	r1	
 5ac:	05 00       	.word	0x0005;	????	
 5ae:	00 02       	.word	0x0200;	????	
 5b0:	1d 01       	.word	0x011d;	????	
 5b2:	2f 00       	.word	0x002f;	????	
 5b4:	00 00       	.word	0x0000;	????	
 5b6:	92 f8 b4 f8 	and	-1868(r8),&0x7102	;0xf8b4(r8)
 5ba:	02 71 
 5bc:	02 cd       	bic	r13,	r2	
 5be:	05 00       	.word	0x0005;	????	
 5c0:	00 22       	jnz	$-1022   	;abs 0x1c2
 5c2:	30 05       	.word	0x0530;	????	
 5c4:	00 00       	.word	0x0000;	????	
 5c6:	a4 f8 ae f8 	and	@r8,	-1874(r4);0xf8ae(r4)
 5ca:	02 29       	jnc	$+518    	;abs 0x7d0
 5cc:	00 23       	jnz	$-510    	;abs 0x3ce
 5ce:	2a 01       	.word	0x012a;	????	
 5d0:	00 00       	.word	0x0000;	????	
 5d2:	06 14       	.word	0x1406;	????	
 5d4:	2e 02       	.word	0x022e;	????	
 5d6:	00 00       	.word	0x0000;	????	
 5d8:	46 03       	.word	0x0346;	????	
 5da:	00 00       	.word	0x0000;	????	
 5dc:	01 03       	.word	0x0301;	????	
 5de:	03 56       	.word	0x5603;	????	Illegal as 2-op instr
 5e0:	00 23       	jnz	$-510    	;abs 0x3e2
 5e2:	0d 01       	.word	0x010d;	????	
 5e4:	00 00       	.word	0x0000;	????	
 5e6:	06 16       	.word	0x1606;	????	
 5e8:	54 01       	.word	0x0154;	????	
 5ea:	00 00       	.word	0x0000;	????	
 5ec:	46 03       	.word	0x0346;	????	
 5ee:	00 00       	.word	0x0000;	????	
 5f0:	01 03       	.word	0x0301;	????	
 5f2:	03 57       	.word	0x5703;	????	Illegal as 2-op instr
 5f4:	00 23       	jnz	$-510    	;abs 0x3f6
 5f6:	15 01       	.word	0x0115;	????	
 5f8:	00 00       	.word	0x0000;	????	
 5fa:	06 18       	.word	0x1806;	????	
 5fc:	5c 01       	.word	0x015c;	????	
 5fe:	00 00       	.word	0x0000;	????	
 600:	46 03       	.word	0x0346;	????	
 602:	00 00       	.word	0x0000;	????	
 604:	01 03       	.word	0x0301;	????	
 606:	03 58       	.word	0x5803;	????	Illegal as 2-op instr
 608:	00 23       	jnz	$-510    	;abs 0x40a
 60a:	1d 01       	.word	0x011d;	????	
 60c:	00 00       	.word	0x0000;	????	
 60e:	06 1b       	.word	0x1b06;	????	
 610:	44 01       	.word	0x0144;	????	
 612:	00 00       	.word	0x0000;	????	
 614:	46 03       	.word	0x0346;	????	
 616:	00 00       	.word	0x0000;	????	
 618:	01 03       	.word	0x0301;	????	
 61a:	03 53       	.word	0x5303;	????	Illegal as emulation instr
 61c:	00 23       	jnz	$-510    	;abs 0x41e
 61e:	6a 05       	.word	0x056a;	????	
 620:	00 00       	.word	0x0000;	????	
 622:	07 14       	.word	0x1407;	????	
 624:	c9 03       	.word	0x03c9;	????	
 626:	00 00       	.word	0x0000;	????	
 628:	e1 00       	.word	0x00e1;	????	
 62a:	00 00       	.word	0x0000;	????	
 62c:	01 03       	.word	0x0301;	????	
 62e:	03 28       	jnc	$+8      	;abs 0x636
 630:	01 23       	jnz	$-508    	;abs 0x434
 632:	4e 05       	.word	0x054e;	????	
 634:	00 00       	.word	0x0000;	????	
 636:	07 16       	.word	0x1607;	????	
 638:	dc 03       	.word	0x03dc;	????	
 63a:	00 00       	.word	0x0000;	????	
 63c:	e1 00       	.word	0x00e1;	????	
 63e:	00 00       	.word	0x0000;	????	
 640:	01 03       	.word	0x0301;	????	
 642:	03 2a       	jnc	$-1016   	;abs 0x24a
 644:	01 23       	jnz	$-508    	;abs 0x448
 646:	bf 02       	.word	0x02bf;	????	
 648:	00 00       	.word	0x0000;	????	
 64a:	07 18       	.word	0x1807;	????	
 64c:	ee 03       	.word	0x03ee;	????	
 64e:	00 00       	.word	0x0000;	????	
 650:	e1 00       	.word	0x00e1;	????	
 652:	00 00       	.word	0x0000;	????	
 654:	01 03       	.word	0x0301;	????	
 656:	03 2c       	jc	$+8      	;abs 0x65e
 658:	01 23       	jnz	$-508    	;abs 0x45c
 65a:	64 01       	.word	0x0164;	????	
 65c:	00 00       	.word	0x0000;	????	
 65e:	08 13       	reti			;return from interupt
 660:	4c 01       	.word	0x014c;	????	
 662:	00 00       	.word	0x0000;	????	
 664:	46 03       	.word	0x0346;	????	
 666:	00 00       	.word	0x0000;	????	
 668:	01 03       	.word	0x0301;	????	
 66a:	03 54       	.word	0x5403;	????	Illegal as 2-op instr
 66c:	00 23       	jnz	$-510    	;abs 0x46e
 66e:	d6 00       	.word	0x00d6;	????	
 670:	00 00       	.word	0x0000;	????	
 672:	03 bb       	.word	0xbb03;	????	Illegal as 2-op instr
 674:	f6 03       	.word	0x03f6;	????	
 676:	00 00       	.word	0x0000;	????	
 678:	e1 00       	.word	0x00e1;	????	
 67a:	00 00       	.word	0x0000;	????	
 67c:	01 03       	.word	0x0301;	????	
 67e:	03 2e       	jc	$-1016   	;abs 0x286
 680:	01 23       	jnz	$-508    	;abs 0x484
 682:	8d 04       	.word	0x048d;	????	
 684:	00 00       	.word	0x0000;	????	
 686:	03 bd       	.word	0xbd03;	????	Illegal as 2-op instr
 688:	fd 00       	.word	0x00fd;	????	
 68a:	00 00       	.word	0x0000;	????	
 68c:	e1 00       	.word	0x00e1;	????	
 68e:	00 00       	.word	0x0000;	????	
 690:	01 03       	.word	0x0301;	????	
 692:	03 60       	.word	0x6003;	????	Illegal as 2-op instr
 694:	01 23       	jnz	$-508    	;abs 0x498
 696:	37 05       	.word	0x0537;	????	
 698:	00 00       	.word	0x0000;	????	
 69a:	03 bf       	.word	0xbf03;	????	Illegal as 2-op instr
 69c:	97 01       	.word	0x0197;	????	
 69e:	00 00       	.word	0x0000;	????	
 6a0:	e1 00       	.word	0x00e1;	????	
 6a2:	00 00       	.word	0x0000;	????	
 6a4:	01 03       	.word	0x0301;	????	
 6a6:	03 70       	.word	0x7003;	????	Illegal as 2-op instr
 6a8:	01 23       	jnz	$-508    	;abs 0x4ac
 6aa:	43 00       	.word	0x0043;	????	
 6ac:	00 00       	.word	0x0000;	????	
 6ae:	03 c2       	.word	0xc203;	????	Illegal as 2-op instr
 6b0:	05 01       	.word	0x0105;	????	
 6b2:	00 00       	.word	0x0000;	????	
 6b4:	e1 00       	.word	0x00e1;	????	
 6b6:	00 00       	.word	0x0000;	????	
 6b8:	01 03       	.word	0x0301;	????	
 6ba:	03 62       	.word	0x6203;	????	Illegal as 2-op instr
 6bc:	01 23       	jnz	$-508    	;abs 0x4c0
 6be:	c2 01       	.word	0x01c2;	????	
 6c0:	00 00       	.word	0x0000;	????	
 6c2:	03 c4       	.word	0xc403;	????	Illegal as 2-op instr
 6c4:	af 01       	.word	0x01af;	????	
 6c6:	00 00       	.word	0x0000;	????	
 6c8:	e1 00       	.word	0x00e1;	????	
 6ca:	00 00       	.word	0x0000;	????	
 6cc:	01 03       	.word	0x0301;	????	
 6ce:	03 64       	.word	0x6403;	????	Illegal as 2-op instr
 6d0:	01 23       	jnz	$-508    	;abs 0x4d4
 6d2:	61 00       	.word	0x0061;	????	
 6d4:	00 00       	.word	0x0000;	????	
 6d6:	03 c6       	.word	0xc603;	????	Illegal as 2-op instr
 6d8:	9f 01       	.word	0x019f;	????	
 6da:	00 00       	.word	0x0000;	????	
 6dc:	e1 00       	.word	0x00e1;	????	
 6de:	00 00       	.word	0x0000;	????	
 6e0:	01 03       	.word	0x0301;	????	
 6e2:	03 72       	.word	0x7203;	????	Illegal as 2-op instr
 6e4:	01 23       	jnz	$-508    	;abs 0x4e8
 6e6:	86 02       	.word	0x0286;	????	
 6e8:	00 00       	.word	0x0000;	????	
 6ea:	03 c8       	.word	0xc803;	????	Illegal as 2-op instr
 6ec:	a7 01       	.word	0x01a7;	????	
 6ee:	00 00       	.word	0x0000;	????	
 6f0:	e1 00       	.word	0x00e1;	????	
 6f2:	00 00       	.word	0x0000;	????	
 6f4:	01 03       	.word	0x0301;	????	
 6f6:	03 74       	.word	0x7403;	????	Illegal as 2-op instr
 6f8:	01 24       	jz	$+4      	;abs 0x6fc
 6fa:	16 00       	.word	0x0016;	????	
 6fc:	00 00       	.word	0x0000;	????	
 6fe:	03 4d       	.word	0x4d03;	????	Illegal as 2-op instr
 700:	01 fd       	and	r13,	r1	
 702:	00 00       	.word	0x0000;	????	
 704:	00 df       	bis	r15,	r0	
 706:	01 00       	.word	0x0001;	????	
 708:	00 01       	.word	0x0100;	????	
 70a:	03 03       	.word	0x0303;	????	
 70c:	60 01       	.word	0x0160;	????	
 70e:	23 de       	.word	0xde23;	????	Illegal as 2-op instr
 710:	01 00       	.word	0x0001;	????	
 712:	00 04       	.word	0x0400;	????	
 714:	88 94 04 00 	cmp	r4,	4(r8)	;0x0004(r8)
 718:	00 5b       	add	r11,	r0	
 71a:	03 00       	.word	0x0003;	????	
 71c:	00 01       	.word	0x0100;	????	
 71e:	03 03       	.word	0x0303;	????	
 720:	20 00       	.word	0x0020;	????	
 722:	23 e4       	.word	0xe423;	????	Illegal as 2-op instr
 724:	01 00       	.word	0x0001;	????	
 726:	00 04       	.word	0x0400;	????	
 728:	8c d4 04 00 	bis	r4,	4(r12)	;0x0004(r12)
 72c:	00 5b       	add	r11,	r0	
 72e:	03 00       	.word	0x0003;	????	
 730:	00 01       	.word	0x0100;	????	
 732:	03 03       	.word	0x0303;	????	
 734:	28 00       	.word	0x0028;	????	
 736:	23 23       	jnz	$-440    	;abs 0x57e
 738:	03 00       	.word	0x0003;	????	
 73a:	00 09       	.word	0x0900;	????	
 73c:	83 94       	cmp	r4,	#1	;r3 As==01
 73e:	04 00       	.word	0x0004;	????	
 740:	00 46       	br	r6		
 742:	03 00       	.word	0x0003;	????	
 744:	00 01       	.word	0x0100;	????	
 746:	03 03       	.word	0x0303;	????	
 748:	20 00       	.word	0x0020;	????	
 74a:	23 0e       	.word	0x0e23;	????	
 74c:	02 00       	.word	0x0002;	????	
 74e:	00 09       	.word	0x0900;	????	
 750:	85 9c 04 00 	cmp	r12,	4(r5)	;0x0004(r5)
 754:	00 46       	br	r6		
 756:	03 00       	.word	0x0003;	????	
 758:	00 01       	.word	0x0100;	????	
 75a:	03 03       	.word	0x0303;	????	
 75c:	21 00       	.word	0x0021;	????	
 75e:	23 bc       	.word	0xbc23;	????	Illegal as 2-op instr
 760:	01 00       	.word	0x0001;	????	
 762:	00 09       	.word	0x0900;	????	
 764:	87 a4 04 00 	dadd	r4,	4(r7)	;0x0004(r7)
 768:	00 46       	br	r6		
 76a:	03 00       	.word	0x0003;	????	
 76c:	00 01       	.word	0x0100;	????	
 76e:	03 03       	.word	0x0303;	????	
 770:	22 00       	.word	0x0022;	????	
 772:	23 a3       	.word	0xa323;	????	Illegal as 2-op instr
 774:	02 00       	.word	0x0002;	????	
 776:	00 09       	.word	0x0900;	????	
 778:	89 ac 04 00 	dadd	r12,	4(r9)	;0x0004(r9)
 77c:	00 46       	br	r6		
 77e:	03 00       	.word	0x0003;	????	
 780:	00 01       	.word	0x0100;	????	
 782:	03 03       	.word	0x0303;	????	
 784:	23 00       	.word	0x0023;	????	
 786:	23 d8       	.word	0xd823;	????	Illegal as 2-op instr
 788:	01 00       	.word	0x0001;	????	
 78a:	00 09       	.word	0x0900;	????	
 78c:	8b b4 04 00 	bit	r4,	4(r11)	;0x0004(r11)
 790:	00 46       	br	r6		
 792:	03 00       	.word	0x0003;	????	
 794:	00 01       	.word	0x0100;	????	
 796:	03 03       	.word	0x0303;	????	
 798:	24 00       	.word	0x0024;	????	
 79a:	23 00       	.word	0x0023;	????	
 79c:	03 00       	.word	0x0003;	????	
 79e:	00 09       	.word	0x0900;	????	
 7a0:	8d bc 04 00 	bit	r12,	4(r13)	;0x0004(r13)
 7a4:	00 46       	br	r6		
 7a6:	03 00       	.word	0x0003;	????	
 7a8:	00 01       	.word	0x0100;	????	
 7aa:	03 03       	.word	0x0303;	????	
 7ac:	25 00       	.word	0x0025;	????	
 7ae:	23 17       	.word	0x1723;	????	
 7b0:	03 00       	.word	0x0003;	????	
 7b2:	00 09       	.word	0x0900;	????	
 7b4:	8f c4 04 00 	bic	r4,	4(r15)	;0x0004(r15)
 7b8:	00 46       	br	r6		
 7ba:	03 00       	.word	0x0003;	????	
 7bc:	00 01       	.word	0x0100;	????	
 7be:	03 03       	.word	0x0303;	????	
 7c0:	26 00       	.word	0x0026;	????	
 7c2:	23 2f       	jc	$-440    	;abs 0x60a
 7c4:	04 00       	.word	0x0004;	????	
 7c6:	00 09       	.word	0x0900;	????	
 7c8:	92 cc 04 00 	bic	4(r12),	&0x4600	;0x0004(r12)
 7cc:	00 46 
 7ce:	03 00       	.word	0x0003;	????	
 7d0:	00 01       	.word	0x0100;	????	
 7d2:	03 03       	.word	0x0303;	????	
 7d4:	27 00       	.word	0x0027;	????	
 7d6:	23 81       	.word	0x8123;	????	Illegal as 2-op instr
 7d8:	04 00       	.word	0x0004;	????	
 7da:	00 09       	.word	0x0900;	????	
 7dc:	98 d4 04 00 	bis	4(r4),	17920(r8);0x0004(r4), 0x4600(r8)
 7e0:	00 46 
 7e2:	03 00       	.word	0x0003;	????	
 7e4:	00 01       	.word	0x0100;	????	
 7e6:	03 03       	.word	0x0303;	????	
 7e8:	28 00       	.word	0x0028;	????	
 7ea:	23 86       	.word	0x8623;	????	Illegal as 2-op instr
 7ec:	01 00       	.word	0x0001;	????	
 7ee:	00 09       	.word	0x0900;	????	
 7f0:	9a dc 04 00 	bis	4(r12),	17920(r10);0x0004(r12), 0x4600(r10)
 7f4:	00 46 
 7f6:	03 00       	.word	0x0003;	????	
 7f8:	00 01       	.word	0x0100;	????	
 7fa:	03 03       	.word	0x0303;	????	
 7fc:	29 00       	.word	0x0029;	????	
 7fe:	23 d1       	.word	0xd123;	????	Illegal as 2-op instr
 800:	03 00       	.word	0x0003;	????	
 802:	00 09       	.word	0x0900;	????	
 804:	9c e4 04 00 	xor	4(r4),	17920(r12);0x0004(r4), 0x4600(r12)
 808:	00 46 
 80a:	03 00       	.word	0x0003;	????	
 80c:	00 01       	.word	0x0100;	????	
 80e:	03 03       	.word	0x0303;	????	
 810:	2a 00       	.word	0x002a;	????	
 812:	23 5c       	.word	0x5c23;	????	Illegal as 2-op instr
 814:	05 00       	.word	0x0005;	????	
 816:	00 09       	.word	0x0900;	????	
 818:	9e ec 04 00 	xor	4(r12),	17920(r14);0x0004(r12), 0x4600(r14)
 81c:	00 46 
 81e:	03 00       	.word	0x0003;	????	
 820:	00 01       	.word	0x0100;	????	
 822:	03 03       	.word	0x0303;	????	
 824:	2b 00       	.word	0x002b;	????	
 826:	23 55       	.word	0x5523;	????	Illegal as 2-op instr
 828:	04 00       	.word	0x0004;	????	
 82a:	00 09       	.word	0x0900;	????	
 82c:	a0 f4 04 00 	and	@r4,	0x0004	;PC rel. 0x00834
 830:	00 46       	br	r6		
 832:	03 00       	.word	0x0003;	????	
 834:	00 01       	.word	0x0100;	????	
 836:	03 03       	.word	0x0303;	????	
 838:	2c 00       	.word	0x002c;	????	
 83a:	23 d3       	.word	0xd323;	????	Illegal as 2-op instr
 83c:	01 00       	.word	0x0001;	????	
 83e:	00 09       	.word	0x0900;	????	
 840:	a2 fc 04 00 	and	@r12,	&0x0004	
 844:	00 46       	br	r6		
 846:	03 00       	.word	0x0003;	????	
 848:	00 01       	.word	0x0100;	????	
 84a:	03 03       	.word	0x0303;	????	
 84c:	2d 00       	.word	0x002d;	????	
 84e:	23 80       	.word	0x8023;	????	Illegal as 2-op instr
 850:	02 00       	.word	0x0002;	????	
 852:	00 09       	.word	0x0900;	????	
 854:	a4 04       	.word	0x04a4;	????	
 856:	05 00       	.word	0x0005;	????	
 858:	00 46       	br	r6		
 85a:	03 00       	.word	0x0003;	????	
 85c:	00 01       	.word	0x0100;	????	
 85e:	03 03       	.word	0x0303;	????	
 860:	2e 00       	.word	0x002e;	????	
 862:	23 73       	.word	0x7323;	????	Illegal as 2-op instr
 864:	04 00       	.word	0x0004;	????	
 866:	00 09       	.word	0x0900;	????	
 868:	a7 0c       	.word	0x0ca7;	????	
 86a:	05 00       	.word	0x0005;	????	
 86c:	00 46       	br	r6		
 86e:	03 00       	.word	0x0003;	????	
 870:	00 01       	.word	0x0100;	????	
 872:	03 03       	.word	0x0303;	????	
 874:	2f 00       	.word	0x002f;	????	
 876:	23 31       	jn	$+584    	;abs 0xabe
 878:	01 00       	.word	0x0001;	????	
 87a:	00 05       	.word	0x0500;	????	
 87c:	12 a0 00 00 	dadd	0x0000,	r2	;PC rel. 0x00880
 880:	00 46       	br	r6		
 882:	03 00       	.word	0x0003;	????	
 884:	00 01       	.word	0x0100;	????	
 886:	03 03       	.word	0x0303;	????	
 888:	48 00       	.word	0x0048;	????	
 88a:	23 0c       	.word	0x0c23;	????	
 88c:	00 00       	.word	0x0000;	????	
 88e:	00 05       	.word	0x0500;	????	
 890:	14 a8 00 00 	dadd	0(r8),	r4	;0x0000(r8)
 894:	00 46       	br	r6		
 896:	03 00       	.word	0x0003;	????	
 898:	00 01       	.word	0x0100;	????	
 89a:	03 03       	.word	0x0303;	????	
 89c:	49 00       	.word	0x0049;	????	
 89e:	23 cd       	.word	0xcd23;	????	Illegal as 2-op instr
 8a0:	00 00       	.word	0x0000;	????	
 8a2:	00 05       	.word	0x0500;	????	
 8a4:	16 c5 00 00 	bic	0(r5),	r6	;0x0000(r5)
 8a8:	00 46       	br	r6		
 8aa:	03 00       	.word	0x0003;	????	
 8ac:	00 01       	.word	0x0100;	????	
 8ae:	03 03       	.word	0x0303;	????	
 8b0:	4a 00       	.word	0x004a;	????	
 8b2:	23 61       	.word	0x6123;	????	Illegal as 2-op instr
 8b4:	03 00       	.word	0x0003;	????	
 8b6:	00 05       	.word	0x0500;	????	
 8b8:	22 5b       	add	@r11,	r2	
 8ba:	04 00       	.word	0x0004;	????	
 8bc:	00 e1       	xor	r1,	r0	
 8be:	00 00       	.word	0x0000;	????	
 8c0:	00 01       	.word	0x0100;	????	
 8c2:	03 03       	.word	0x0303;	????	
 8c4:	b0 01       	.word	0x01b0;	????	
 8c6:	23 6b       	.word	0x6b23;	????	Illegal as 2-op instr
 8c8:	03 00       	.word	0x0003;	????	
 8ca:	00 05       	.word	0x0500;	????	
 8cc:	24 63       	addc	#2,	r4	;r3 As==10
 8ce:	04 00       	.word	0x0004;	????	
 8d0:	00 e1       	xor	r1,	r0	
 8d2:	00 00       	.word	0x0000;	????	
 8d4:	00 01       	.word	0x0100;	????	
 8d6:	03 03       	.word	0x0303;	????	
 8d8:	b2 01       	.word	0x01b2;	????	
 8da:	23 2b       	jnc	$-440    	;abs 0x722
 8dc:	00 00       	.word	0x0000;	????	
 8de:	00 05       	.word	0x0500;	????	
 8e0:	26 6b       	addc	@r11,	r6	
 8e2:	04 00       	.word	0x0004;	????	
 8e4:	00 e1       	xor	r1,	r0	
 8e6:	00 00       	.word	0x0000;	????	
 8e8:	00 01       	.word	0x0100;	????	
 8ea:	03 03       	.word	0x0303;	????	
 8ec:	b4 01       	.word	0x01b4;	????	
 8ee:	23 f5       	.word	0xf523;	????	Illegal as 2-op instr
 8f0:	00 00       	.word	0x0000;	????	
 8f2:	00 05       	.word	0x0500;	????	
 8f4:	28 79       	subc	@r9,	r8	
 8f6:	04 00       	.word	0x0004;	????	
 8f8:	00 e1       	xor	r1,	r0	
 8fa:	00 00       	.word	0x0000;	????	
 8fc:	00 01       	.word	0x0100;	????	
 8fe:	03 03       	.word	0x0303;	????	
 900:	bc 01       	.word	0x01bc;	????	
 902:	23 1d       	.word	0x1d23;	????	
 904:	00 00       	.word	0x0000;	????	
 906:	00 05       	.word	0x0500;	????	
 908:	4c 5b       	add.b	r11,	r12	
 90a:	04 00       	.word	0x0004;	????	
 90c:	00 ec       	xor	r12,	r0	
 90e:	04 00       	.word	0x0004;	????	
 910:	00 01       	.word	0x0100;	????	
 912:	03 03       	.word	0x0303;	????	
 914:	b0 01       	.word	0x01b0;	????	
 916:	23 93       	.word	0x9323;	????	Illegal as 2-op instr
 918:	02 00       	.word	0x0002;	????	
 91a:	00 0a       	.word	0x0a00;	????	
 91c:	14 e1 02 00 	xor	2(r1),	r4	;0x0002(r1)
 920:	00 46       	br	r6		
 922:	03 00       	.word	0x0003;	????	
 924:	00 01       	.word	0x0100;	????	
 926:	03 03       	.word	0x0303;	????	
 928:	78 00       	.word	0x0078;	????	
 92a:	23 9b       	.word	0x9b23;	????	Illegal as 2-op instr
 92c:	02 00       	.word	0x0002;	????	
 92e:	00 0a       	.word	0x0a00;	????	
 930:	16 e9 02 00 	xor	2(r9),	r6	;0x0002(r9)
 934:	00 46       	br	r6		
 936:	03 00       	.word	0x0003;	????	
 938:	00 01       	.word	0x0100;	????	
 93a:	03 03       	.word	0x0303;	????	
 93c:	79 00       	.word	0x0079;	????	
 93e:	23 14       	.word	0x1423;	????	
 940:	02 00       	.word	0x0002;	????	
 942:	00 0a       	.word	0x0a00;	????	
 944:	18 54 05 00 	add	5(r4),	r8	;0x0005(r4)
 948:	00 46       	br	r6		
 94a:	03 00       	.word	0x0003;	????	
 94c:	00 01       	.word	0x0100;	????	
 94e:	03 03       	.word	0x0303;	????	
 950:	7a 00       	.word	0x007a;	????	
 952:	23 34       	jge	$+72     	;abs 0x99a
 954:	00 00       	.word	0x0000;	????	
 956:	00 0a       	.word	0x0a00;	????	
 958:	1a 05       	.word	0x051a;	????	
 95a:	03 00       	.word	0x0003;	????	
 95c:	00 46       	br	r6		
 95e:	03 00       	.word	0x0003;	????	
 960:	00 01       	.word	0x0100;	????	
 962:	03 03       	.word	0x0303;	????	
 964:	7b 00       	.word	0x007b;	????	
 966:	23 45       	.word	0x4523;	????	Illegal as 2-op instr
 968:	04 00       	.word	0x0004;	????	
 96a:	00 0a       	.word	0x0a00;	????	
 96c:	1c 70 02 00 	subc	0x0002,	r12	;PC rel. 0x00972
 970:	00 46       	br	r6		
 972:	03 00       	.word	0x0003;	????	
 974:	00 01       	.word	0x0100;	????	
 976:	03 03       	.word	0x0303;	????	
 978:	7c 00       	.word	0x007c;	????	
 97a:	23 35       	jge	$+584    	;abs 0xbc2
 97c:	04 00       	.word	0x0004;	????	
 97e:	00 0a       	.word	0x0a00;	????	
 980:	1e 78 02 00 	subc	2(r8),	r14	;0x0002(r8)
 984:	00 46       	br	r6		
 986:	03 00       	.word	0x0003;	????	
 988:	00 01       	.word	0x0100;	????	
 98a:	03 03       	.word	0x0303;	????	
 98c:	7d 00       	.word	0x007d;	????	
 98e:	23 86       	.word	0x8623;	????	Illegal as 2-op instr
 990:	04 00       	.word	0x0004;	????	
 992:	00 0a       	.word	0x0a00;	????	
 994:	20 e1       	xor	@r1,	r0	
 996:	02 00       	.word	0x0002;	????	
 998:	00 e1       	xor	r1,	r0	
 99a:	00 00       	.word	0x0000;	????	
 99c:	00 01       	.word	0x0100;	????	
 99e:	03 03       	.word	0x0303;	????	
 9a0:	78 00       	.word	0x0078;	????	
 9a2:	23 59       	.word	0x5923;	????	Illegal as 2-op instr
 9a4:	03 00       	.word	0x0003;	????	
 9a6:	00 0a       	.word	0x0a00;	????	
 9a8:	23 54       	.word	0x5423;	????	Illegal as 2-op instr
 9aa:	05 00       	.word	0x0005;	????	
 9ac:	00 e1       	xor	r1,	r0	
 9ae:	00 00       	.word	0x0000;	????	
 9b0:	00 01       	.word	0x0100;	????	
 9b2:	03 03       	.word	0x0303;	????	
 9b4:	7a 00       	.word	0x007a;	????	
 9b6:	23 38       	jl	$+72     	;abs 0x9fe
 9b8:	03 00       	.word	0x0003;	????	
 9ba:	00 0a       	.word	0x0a00;	????	
 9bc:	26 70       	subc	@r0,	r6	
 9be:	02 00       	.word	0x0002;	????	
 9c0:	00 e1       	xor	r1,	r0	
 9c2:	00 00       	.word	0x0000;	????	
 9c4:	00 01       	.word	0x0100;	????	
 9c6:	03 03       	.word	0x0303;	????	
 9c8:	7c 00       	.word	0x007c;	????	
 9ca:	23 05       	.word	0x0523;	????	
 9cc:	00 00       	.word	0x0000;	????	
 9ce:	00 0b       	.word	0x0b00;	????	
 9d0:	4b 6a       	addc.b	r10,	r11	
 9d2:	01 00       	.word	0x0001;	????	
 9d4:	00 e1       	xor	r1,	r0	
 9d6:	00 00       	.word	0x0000;	????	
 9d8:	00 01       	.word	0x0100;	????	
 9da:	03 03       	.word	0x0303;	????	
 9dc:	20 01       	.word	0x0120;	????	
 9de:	25 49       	mov	@r9,	r5	
 9e0:	45 31       	jn	$+652    	;abs 0xc6c
 9e2:	00 0c       	.word	0x0c00;	????	
 9e4:	25 52       	add	#4,	r5	;r2 As==10
 9e6:	00 00       	.word	0x0000;	????	
 9e8:	00 46       	br	r6		
 9ea:	03 00       	.word	0x0003;	????	
 9ec:	00 01       	.word	0x0100;	????	
 9ee:	03 03       	.word	0x0303;	????	
 9f0:	00 00       	.word	0x0000;	????	
 9f2:	23 25       	jz	$+584    	;abs 0xc3a
 9f4:	01 00       	.word	0x0001;	????	
 9f6:	00 0c       	.word	0x0c00;	????	
 9f8:	2c 30       	jn	$+90     	;abs 0xa52
 9fa:	03 00       	.word	0x0003;	????	
 9fc:	00 46       	br	r6		
 9fe:	03 00       	.word	0x0003;	????	
 a00:	00 01       	.word	0x0100;	????	
 a02:	03 03       	.word	0x0303;	????	
 a04:	02 00       	.word	0x0002;	????	
 a06:	23 44       	.word	0x4423;	????	Illegal as 2-op instr
 a08:	02 00       	.word	0x0002;	????	
 a0a:	00 0c       	.word	0x0c00;	????	
 a0c:	38 fe       	and	@r14+,	r8	
 a0e:	01 00       	.word	0x0001;	????	
 a10:	00 46       	br	r6		
 a12:	03 00       	.word	0x0003;	????	
 a14:	00 01       	.word	0x0100;	????	
 a16:	03 03       	.word	0x0303;	????	
 a18:	f8 10       	.word	0x10f8;	????	
 a1a:	23 dc       	.word	0xdc23;	????	Illegal as 2-op instr
 a1c:	00 00       	.word	0x0000;	????	
 a1e:	00 0c       	.word	0x0c00;	????	
 a20:	3a 06       	.word	0x063a;	????	
 a22:	02 00       	.word	0x0002;	????	
 a24:	00 46       	br	r6		
 a26:	03 00       	.word	0x0003;	????	
 a28:	00 01       	.word	0x0100;	????	
 a2a:	03 03       	.word	0x0303;	????	
 a2c:	f9 10       	.word	0x10f9;	????	
 a2e:	23 3c       	jmp	$+72     	;abs 0xa76
 a30:	05 00       	.word	0x0005;	????	
 a32:	00 0c       	.word	0x0c00;	????	
 a34:	3c 26       	jz	$-902    	;abs 0x6ae
 a36:	02 00       	.word	0x0002;	????	
 a38:	00 46       	br	r6		
 a3a:	03 00       	.word	0x0003;	????	
 a3c:	00 01       	.word	0x0100;	????	
 a3e:	03 03       	.word	0x0303;	????	
 a40:	fa 10       	.word	0x10fa;	????	
 a42:	23 46       	.word	0x4623;	????	Illegal as 2-op instr
 a44:	03 00       	.word	0x0003;	????	
 a46:	00 0c       	.word	0x0c00;	????	
 a48:	3e 23       	jnz	$-386    	;abs 0x8c6
 a4a:	00 00       	.word	0x0000;	????	
 a4c:	00 46       	br	r6		
 a4e:	03 00       	.word	0x0003;	????	
 a50:	00 01       	.word	0x0100;	????	
 a52:	03 03       	.word	0x0303;	????	
 a54:	fb 10       	.word	0x10fb;	????	
 a56:	23 5d       	.word	0x5d23;	????	Illegal as 2-op instr
 a58:	02 00       	.word	0x0002;	????	
 a5a:	00 0c       	.word	0x0c00;	????	
 a5c:	40 36       	jge	$-894    	;abs 0x6de
 a5e:	02 00       	.word	0x0002;	????	
 a60:	00 46       	br	r6		
 a62:	03 00       	.word	0x0003;	????	
 a64:	00 01       	.word	0x0100;	????	
 a66:	03 03       	.word	0x0303;	????	
 a68:	fc 10       	.word	0x10fc;	????	
 a6a:	23 83       	decd	#0		;r3 As==00
 a6c:	03 00       	.word	0x0003;	????	
 a6e:	00 0c       	.word	0x0c00;	????	
 a70:	42 3b       	jl	$-378    	;abs 0x8f6
 a72:	00 00       	.word	0x0000;	????	
 a74:	00 46       	br	r6		
 a76:	03 00       	.word	0x0003;	????	
 a78:	00 01       	.word	0x0100;	????	
 a7a:	03 03       	.word	0x0303;	????	
 a7c:	fd 10       	.word	0x10fd;	????	
 a7e:	23 e9       	.word	0xe923;	????	Illegal as 2-op instr
 a80:	00 00       	.word	0x0000;	????	
 a82:	00 0c       	.word	0x0c00;	????	
 a84:	44 cb       	bic.b	r11,	r4	
 a86:	01 00       	.word	0x0001;	????	
 a88:	00 46       	br	r6		
 a8a:	03 00       	.word	0x0003;	????	
 a8c:	00 01       	.word	0x0100;	????	
 a8e:	03 03       	.word	0x0303;	????	
 a90:	fe 10       	.word	0x10fe;	????	
 a92:	23 51       	.word	0x5123;	????	Illegal as 2-op instr
 a94:	02 00       	.word	0x0002;	????	
 a96:	00 0c       	.word	0x0c00;	????	
 a98:	46 fe       	and.b	r14,	r6	
 a9a:	03 00       	.word	0x0003;	????	
 a9c:	00 46       	br	r6		
 a9e:	03 00       	.word	0x0003;	????	
 aa0:	00 01       	.word	0x0100;	????	
 aa2:	03 03       	.word	0x0303;	????	
 aa4:	ff 10       	.word	0x10ff;	????	
 aa6:	00 ed       	xor	r13,	r0	
 aa8:	00 00       	.word	0x0000;	????	
 aaa:	00 02       	.word	0x0200;	????	
 aac:	00 2f       	jc	$-510    	;abs 0x8ae
 aae:	02 00       	.word	0x0002;	????	
 ab0:	00 02       	.word	0x0200;	????	
 ab2:	01 a0       	dadd	r0,	r1	
 ab4:	01 00       	.word	0x0001;	????	
 ab6:	00 00       	.word	0x0000;	????	
 ab8:	f8 04       	.word	0x04f8;	????	
 aba:	f8 2f       	jc	$-14     	;abs 0xaac
 abc:	55 73       	subc.b	#1,	r5	;r3 As==01
 abe:	65 72       	subc.b	#4,	r5	;r2 As==10
 ac0:	73 2f       	jc	$-280    	;abs 0x9a8
 ac2:	6a 61       	addc.b	@r1,	r10	
 ac4:	76 69       	addc.b	@r9+,	r6	
 ac6:	2f 44       	mov	@r4,	r15	
 ac8:	6f 77       	subc.b	@r7,	r15	
 aca:	6e 6c       	addc.b	@r12,	r14	
 acc:	6f 61       	addc.b	@r1,	r15	
 ace:	64 73       	subc.b	#2,	r4	;r3 As==10
 ad0:	2f 4d       	mov	@r13,	r15	
 ad2:	53 50       	.word	0x5053;	????	Illegal as 2-op instr
 ad4:	34 33       	jn	$-406    	;abs 0x93e
 ad6:	30 2f       	jc	$-414    	;abs 0x938
 ad8:	6d 73       	subc.b	#2,	r13	;r3 As==10
 ada:	70 67       	addc.b	@r7+,	r0	
 adc:	63 63       	.word	0x6363;	????	Illegal as 2-op instr
 ade:	34 2d       	jc	$+618    	;abs 0xd48
 ae0:	32 30       	jn	$+102    	;abs 0xb46
 ae2:	31 30       	jn	$+100    	;abs 0xb46
 ae4:	31 30       	jn	$+100    	;abs 0xb48
 ae6:	30 36       	jge	$-926    	;abs 0x748
 ae8:	2f 62       	addc	#4,	r15	;r2 As==10
 aea:	75 69       	addc.b	@r9+,	r5	
 aec:	6c 64       	addc.b	@r4,	r12	
 aee:	2f 67       	addc	@r7,	r15	
 af0:	63 63       	.word	0x6363;	????	Illegal as 2-op instr
 af2:	2d 34       	jge	$+92     	;abs 0xb4e
 af4:	2e 34       	jge	$+94     	;abs 0xb52
 af6:	2e 33       	jn	$-418    	;abs 0x954
 af8:	2d 62       	addc	#4,	r13	;r2 As==10
 afa:	75 69       	addc.b	@r9+,	r5	
 afc:	6c 64       	addc.b	@r4,	r12	
 afe:	2f 2e       	jc	$-928    	;abs 0x75e
 b00:	2e 2f       	jc	$-418    	;abs 0x95e
 b02:	67 63       	addc.b	#2,	r7	;r3 As==10
 b04:	63 2d       	jc	$+712    	;abs 0xdcc
 b06:	34 2e       	jc	$-918    	;abs 0x770
 b08:	34 2e       	jc	$-918    	;abs 0x772
 b0a:	33 2f       	jc	$-408    	;abs 0x972
 b0c:	6c 69       	addc.b	@r9,	r12	
 b0e:	62 67       	addc.b	@r7,	r2	
 b10:	63 63       	.word	0x6363;	????	Illegal as 2-op instr
 b12:	2f 2e       	jc	$-928    	;abs 0x772
 b14:	2e 2f       	jc	$-418    	;abs 0x972
 b16:	67 63       	addc.b	#2,	r7	;r3 As==10
 b18:	63 2f       	jc	$-312    	;abs 0x9e0
 b1a:	63 6f       	.word	0x6f63;	????	Illegal as 2-op instr
 b1c:	6e 66       	addc.b	@r6,	r14	
 b1e:	69 67       	addc.b	@r7,	r9	
 b20:	2f 6d       	addc	@r13,	r15	
 b22:	73 70       	.word	0x7073;	????	Illegal as 2-op instr
 b24:	34 33       	jn	$-406    	;abs 0x98e
 b26:	30 2f       	jc	$-414    	;abs 0x988
 b28:	6c 69       	addc.b	@r9,	r12	
 b2a:	62 67       	addc.b	@r7,	r2	
 b2c:	63 63       	.word	0x6363;	????	Illegal as 2-op instr
 b2e:	2e 53       	incd	r14		
 b30:	00 2f       	jc	$-510    	;abs 0x932
 b32:	55 73       	subc.b	#1,	r5	;r3 As==01
 b34:	65 72       	subc.b	#4,	r5	;r2 As==10
 b36:	73 2f       	jc	$-280    	;abs 0xa1e
 b38:	6a 61       	addc.b	@r1,	r10	
 b3a:	76 69       	addc.b	@r9+,	r6	
 b3c:	2f 44       	mov	@r4,	r15	
 b3e:	6f 77       	subc.b	@r7,	r15	
 b40:	6e 6c       	addc.b	@r12,	r14	
 b42:	6f 61       	addc.b	@r1,	r15	
 b44:	64 73       	subc.b	#2,	r4	;r3 As==10
 b46:	2f 4d       	mov	@r13,	r15	
 b48:	53 50       	.word	0x5053;	????	Illegal as 2-op instr
 b4a:	34 33       	jn	$-406    	;abs 0x9b4
 b4c:	30 2f       	jc	$-414    	;abs 0x9ae
 b4e:	6d 73       	subc.b	#2,	r13	;r3 As==10
 b50:	70 67       	addc.b	@r7+,	r0	
 b52:	63 63       	.word	0x6363;	????	Illegal as 2-op instr
 b54:	34 2d       	jc	$+618    	;abs 0xdbe
 b56:	32 30       	jn	$+102    	;abs 0xbbc
 b58:	31 30       	jn	$+100    	;abs 0xbbc
 b5a:	31 30       	jn	$+100    	;abs 0xbbe
 b5c:	30 36       	jge	$-926    	;abs 0x7be
 b5e:	2f 62       	addc	#4,	r15	;r2 As==10
 b60:	75 69       	addc.b	@r9+,	r5	
 b62:	6c 64       	addc.b	@r4,	r12	
 b64:	2f 67       	addc	@r7,	r15	
 b66:	63 63       	.word	0x6363;	????	Illegal as 2-op instr
 b68:	2d 34       	jge	$+92     	;abs 0xbc4
 b6a:	2e 34       	jge	$+94     	;abs 0xbc8
 b6c:	2e 33       	jn	$-418    	;abs 0x9ca
 b6e:	2d 62       	addc	#4,	r13	;r2 As==10
 b70:	75 69       	addc.b	@r9+,	r5	
 b72:	6c 64       	addc.b	@r4,	r12	
 b74:	2f 6d       	addc	@r13,	r15	
 b76:	73 70       	.word	0x7073;	????	Illegal as 2-op instr
 b78:	34 33       	jn	$-406    	;abs 0x9e2
 b7a:	30 2f       	jc	$-414    	;abs 0x9dc
 b7c:	6d 73       	subc.b	#2,	r13	;r3 As==10
 b7e:	70 31       	jn	$+738    	;abs 0xe60
 b80:	2f 6c       	addc	@r12,	r15	
 b82:	69 62       	addc.b	#4,	r9	;r2 As==10
 b84:	67 63       	addc.b	#2,	r7	;r3 As==10
 b86:	63 00       	.word	0x0063;	????	
 b88:	47 4e       	mov.b	r14,	r7	
 b8a:	55 20       	jnz	$+172    	;abs 0xc36
 b8c:	41 53       	add.b	#0,	r1	;r3 As==00
 b8e:	20 32       	jn	$-958    	;abs 0x7d0
 b90:	2e 32       	jn	$-930    	;abs 0x7ee
 b92:	30 2e       	jc	$-926    	;abs 0x7f4
 b94:	31 00       	.word	0x0031;	????	
 b96:	01 80       	sub	r0,	r1	
 b98:	ed 00       	.word	0x00ed;	????	
 b9a:	00 00       	.word	0x0000;	????	
 b9c:	02 00       	.word	0x0002;	????	
 b9e:	43 02       	.word	0x0243;	????	
 ba0:	00 00       	.word	0x0000;	????	
 ba2:	02 01       	.word	0x0102;	????	
 ba4:	44 02       	.word	0x0244;	????	
 ba6:	00 00       	.word	0x0000;	????	
 ba8:	0a f8       	and	r8,	r10	
 baa:	1c f8 2f 55 	and	21807(r8),r12	;0x552f(r8)
 bae:	73 65       	.word	0x6573;	????	Illegal as 2-op instr
 bb0:	72 73       	subc.b	#-1,	r2	;r3 As==11
 bb2:	2f 6a       	addc	@r10,	r15	
 bb4:	61 76       	subc.b	@r6,	r1	
 bb6:	69 2f       	jc	$-300    	;abs 0xa8a
 bb8:	44 6f       	addc.b	r15,	r4	
 bba:	77 6e       	addc.b	@r14+,	r7	
 bbc:	6c 6f       	addc.b	@r15,	r12	
 bbe:	61 64       	addc.b	@r4,	r1	
 bc0:	73 2f       	jc	$-280    	;abs 0xaa8
 bc2:	4d 53       	add.b	#0,	r13	;r3 As==00
 bc4:	50 34       	jge	$+162    	;abs 0xc66
 bc6:	33 30       	jn	$+104    	;abs 0xc2e
 bc8:	2f 6d       	addc	@r13,	r15	
 bca:	73 70       	.word	0x7073;	????	Illegal as 2-op instr
 bcc:	67 63       	addc.b	#2,	r7	;r3 As==10
 bce:	63 34       	jge	$+200    	;abs 0xc96
 bd0:	2d 32       	jn	$-932    	;abs 0x82c
 bd2:	30 31       	jn	$+610    	;abs 0xe34
 bd4:	30 31       	jn	$+610    	;abs 0xe36
 bd6:	30 30       	jn	$+98     	;abs 0xc38
 bd8:	36 2f       	jc	$-402    	;abs 0xa46
 bda:	62 75       	subc.b	@r5,	r2	
 bdc:	69 6c       	addc.b	@r12,	r9	
 bde:	64 2f       	jc	$-310    	;abs 0xaa8
 be0:	67 63       	addc.b	#2,	r7	;r3 As==10
 be2:	63 2d       	jc	$+712    	;abs 0xeaa
 be4:	34 2e       	jc	$-918    	;abs 0x84e
 be6:	34 2e       	jc	$-918    	;abs 0x850
 be8:	33 2d       	jc	$+616    	;abs 0xe50
 bea:	62 75       	subc.b	@r5,	r2	
 bec:	69 6c       	addc.b	@r12,	r9	
 bee:	64 2f       	jc	$-310    	;abs 0xab8
 bf0:	2e 2e       	jc	$-930    	;abs 0x84e
 bf2:	2f 67       	addc	@r7,	r15	
 bf4:	63 63       	.word	0x6363;	????	Illegal as 2-op instr
 bf6:	2d 34       	jge	$+92     	;abs 0xc52
 bf8:	2e 34       	jge	$+94     	;abs 0xc56
 bfa:	2e 33       	jn	$-418    	;abs 0xa58
 bfc:	2f 6c       	addc	@r12,	r15	
 bfe:	69 62       	addc.b	#4,	r9	;r2 As==10
 c00:	67 63       	addc.b	#2,	r7	;r3 As==10
 c02:	63 2f       	jc	$-312    	;abs 0xaca
 c04:	2e 2e       	jc	$-930    	;abs 0x862
 c06:	2f 67       	addc	@r7,	r15	
 c08:	63 63       	.word	0x6363;	????	Illegal as 2-op instr
 c0a:	2f 63       	addc	#2,	r15	;r3 As==10
 c0c:	6f 6e       	addc.b	@r14,	r15	
 c0e:	66 69       	addc.b	@r9,	r6	
 c10:	67 2f       	jc	$-304    	;abs 0xae0
 c12:	6d 73       	subc.b	#2,	r13	;r3 As==10
 c14:	70 34       	jge	$+226    	;abs 0xcf6
 c16:	33 30       	jn	$+104    	;abs 0xc7e
 c18:	2f 6c       	addc	@r12,	r15	
 c1a:	69 62       	addc.b	#4,	r9	;r2 As==10
 c1c:	67 63       	addc.b	#2,	r7	;r3 As==10
 c1e:	63 2e       	jc	$-824    	;abs 0x8e6
 c20:	53 00       	.word	0x0053;	????	
 c22:	2f 55       	add	@r5,	r15	
 c24:	73 65       	.word	0x6573;	????	Illegal as 2-op instr
 c26:	72 73       	subc.b	#-1,	r2	;r3 As==11
 c28:	2f 6a       	addc	@r10,	r15	
 c2a:	61 76       	subc.b	@r6,	r1	
 c2c:	69 2f       	jc	$-300    	;abs 0xb00
 c2e:	44 6f       	addc.b	r15,	r4	
 c30:	77 6e       	addc.b	@r14+,	r7	
 c32:	6c 6f       	addc.b	@r15,	r12	
 c34:	61 64       	addc.b	@r4,	r1	
 c36:	73 2f       	jc	$-280    	;abs 0xb1e
 c38:	4d 53       	add.b	#0,	r13	;r3 As==00
 c3a:	50 34       	jge	$+162    	;abs 0xcdc
 c3c:	33 30       	jn	$+104    	;abs 0xca4
 c3e:	2f 6d       	addc	@r13,	r15	
 c40:	73 70       	.word	0x7073;	????	Illegal as 2-op instr
 c42:	67 63       	addc.b	#2,	r7	;r3 As==10
 c44:	63 34       	jge	$+200    	;abs 0xd0c
 c46:	2d 32       	jn	$-932    	;abs 0x8a2
 c48:	30 31       	jn	$+610    	;abs 0xeaa
 c4a:	30 31       	jn	$+610    	;abs 0xeac
 c4c:	30 30       	jn	$+98     	;abs 0xcae
 c4e:	36 2f       	jc	$-402    	;abs 0xabc
 c50:	62 75       	subc.b	@r5,	r2	
 c52:	69 6c       	addc.b	@r12,	r9	
 c54:	64 2f       	jc	$-310    	;abs 0xb1e
 c56:	67 63       	addc.b	#2,	r7	;r3 As==10
 c58:	63 2d       	jc	$+712    	;abs 0xf20
 c5a:	34 2e       	jc	$-918    	;abs 0x8c4
 c5c:	34 2e       	jc	$-918    	;abs 0x8c6
 c5e:	33 2d       	jc	$+616    	;abs 0xec6
 c60:	62 75       	subc.b	@r5,	r2	
 c62:	69 6c       	addc.b	@r12,	r9	
 c64:	64 2f       	jc	$-310    	;abs 0xb2e
 c66:	6d 73       	subc.b	#2,	r13	;r3 As==10
 c68:	70 34       	jge	$+226    	;abs 0xd4a
 c6a:	33 30       	jn	$+104    	;abs 0xcd2
 c6c:	2f 6d       	addc	@r13,	r15	
 c6e:	73 70       	.word	0x7073;	????	Illegal as 2-op instr
 c70:	31 2f       	jc	$-412    	;abs 0xad4
 c72:	6c 69       	addc.b	@r9,	r12	
 c74:	62 67       	addc.b	@r7,	r2	
 c76:	63 63       	.word	0x6363;	????	Illegal as 2-op instr
 c78:	00 47       	br	r7		
 c7a:	4e 55       	add.b	r5,	r14	
 c7c:	20 41       	br	@r1		
 c7e:	53 20       	jnz	$+168    	;abs 0xd26
 c80:	32 2e       	jc	$-922    	;abs 0x8e6
 c82:	32 30       	jn	$+102    	;abs 0xce8
 c84:	2e 31       	jn	$+606    	;abs 0xee2
 c86:	00 01       	.word	0x0100;	????	
 c88:	80 ed 00 00 	xor	r13,	0x0000	;PC rel. 0x00c8c
 c8c:	00 02       	.word	0x0200;	????	
 c8e:	00 57       	add	r7,	r0	
 c90:	02 00       	.word	0x0002;	????	
 c92:	00 02       	.word	0x0200;	????	
 c94:	01 ed       	xor	r13,	r1	
 c96:	02 00       	.word	0x0002;	????	
 c98:	00 1c       	.word	0x1c00;	????	
 c9a:	f8 2c       	jc	$+498    	;abs 0xe8c
 c9c:	f8 2f       	jc	$-14     	;abs 0xc8e
 c9e:	55 73       	subc.b	#1,	r5	;r3 As==01
 ca0:	65 72       	subc.b	#4,	r5	;r2 As==10
 ca2:	73 2f       	jc	$-280    	;abs 0xb8a
 ca4:	6a 61       	addc.b	@r1,	r10	
 ca6:	76 69       	addc.b	@r9+,	r6	
 ca8:	2f 44       	mov	@r4,	r15	
 caa:	6f 77       	subc.b	@r7,	r15	
 cac:	6e 6c       	addc.b	@r12,	r14	
 cae:	6f 61       	addc.b	@r1,	r15	
 cb0:	64 73       	subc.b	#2,	r4	;r3 As==10
 cb2:	2f 4d       	mov	@r13,	r15	
 cb4:	53 50       	.word	0x5053;	????	Illegal as 2-op instr
 cb6:	34 33       	jn	$-406    	;abs 0xb20
 cb8:	30 2f       	jc	$-414    	;abs 0xb1a
 cba:	6d 73       	subc.b	#2,	r13	;r3 As==10
 cbc:	70 67       	addc.b	@r7+,	r0	
 cbe:	63 63       	.word	0x6363;	????	Illegal as 2-op instr
 cc0:	34 2d       	jc	$+618    	;abs 0xf2a
 cc2:	32 30       	jn	$+102    	;abs 0xd28
 cc4:	31 30       	jn	$+100    	;abs 0xd28
 cc6:	31 30       	jn	$+100    	;abs 0xd2a
 cc8:	30 36       	jge	$-926    	;abs 0x92a
 cca:	2f 62       	addc	#4,	r15	;r2 As==10
 ccc:	75 69       	addc.b	@r9+,	r5	
 cce:	6c 64       	addc.b	@r4,	r12	
 cd0:	2f 67       	addc	@r7,	r15	
 cd2:	63 63       	.word	0x6363;	????	Illegal as 2-op instr
 cd4:	2d 34       	jge	$+92     	;abs 0xd30
 cd6:	2e 34       	jge	$+94     	;abs 0xd34
 cd8:	2e 33       	jn	$-418    	;abs 0xb36
 cda:	2d 62       	addc	#4,	r13	;r2 As==10
 cdc:	75 69       	addc.b	@r9+,	r5	
 cde:	6c 64       	addc.b	@r4,	r12	
 ce0:	2f 2e       	jc	$-928    	;abs 0x940
 ce2:	2e 2f       	jc	$-418    	;abs 0xb40
 ce4:	67 63       	addc.b	#2,	r7	;r3 As==10
 ce6:	63 2d       	jc	$+712    	;abs 0xfae
 ce8:	34 2e       	jc	$-918    	;abs 0x952
 cea:	34 2e       	jc	$-918    	;abs 0x954
 cec:	33 2f       	jc	$-408    	;abs 0xb54
 cee:	6c 69       	addc.b	@r9,	r12	
 cf0:	62 67       	addc.b	@r7,	r2	
 cf2:	63 63       	.word	0x6363;	????	Illegal as 2-op instr
 cf4:	2f 2e       	jc	$-928    	;abs 0x954
 cf6:	2e 2f       	jc	$-418    	;abs 0xb54
 cf8:	67 63       	addc.b	#2,	r7	;r3 As==10
 cfa:	63 2f       	jc	$-312    	;abs 0xbc2
 cfc:	63 6f       	.word	0x6f63;	????	Illegal as 2-op instr
 cfe:	6e 66       	addc.b	@r6,	r14	
 d00:	69 67       	addc.b	@r7,	r9	
 d02:	2f 6d       	addc	@r13,	r15	
 d04:	73 70       	.word	0x7073;	????	Illegal as 2-op instr
 d06:	34 33       	jn	$-406    	;abs 0xb70
 d08:	30 2f       	jc	$-414    	;abs 0xb6a
 d0a:	6c 69       	addc.b	@r9,	r12	
 d0c:	62 67       	addc.b	@r7,	r2	
 d0e:	63 63       	.word	0x6363;	????	Illegal as 2-op instr
 d10:	2e 53       	incd	r14		
 d12:	00 2f       	jc	$-510    	;abs 0xb14
 d14:	55 73       	subc.b	#1,	r5	;r3 As==01
 d16:	65 72       	subc.b	#4,	r5	;r2 As==10
 d18:	73 2f       	jc	$-280    	;abs 0xc00
 d1a:	6a 61       	addc.b	@r1,	r10	
 d1c:	76 69       	addc.b	@r9+,	r6	
 d1e:	2f 44       	mov	@r4,	r15	
 d20:	6f 77       	subc.b	@r7,	r15	
 d22:	6e 6c       	addc.b	@r12,	r14	
 d24:	6f 61       	addc.b	@r1,	r15	
 d26:	64 73       	subc.b	#2,	r4	;r3 As==10
 d28:	2f 4d       	mov	@r13,	r15	
 d2a:	53 50       	.word	0x5053;	????	Illegal as 2-op instr
 d2c:	34 33       	jn	$-406    	;abs 0xb96
 d2e:	30 2f       	jc	$-414    	;abs 0xb90
 d30:	6d 73       	subc.b	#2,	r13	;r3 As==10
 d32:	70 67       	addc.b	@r7+,	r0	
 d34:	63 63       	.word	0x6363;	????	Illegal as 2-op instr
 d36:	34 2d       	jc	$+618    	;abs 0xfa0
 d38:	32 30       	jn	$+102    	;abs 0xd9e
 d3a:	31 30       	jn	$+100    	;abs 0xd9e
 d3c:	31 30       	jn	$+100    	;abs 0xda0
 d3e:	30 36       	jge	$-926    	;abs 0x9a0
 d40:	2f 62       	addc	#4,	r15	;r2 As==10
 d42:	75 69       	addc.b	@r9+,	r5	
 d44:	6c 64       	addc.b	@r4,	r12	
 d46:	2f 67       	addc	@r7,	r15	
 d48:	63 63       	.word	0x6363;	????	Illegal as 2-op instr
 d4a:	2d 34       	jge	$+92     	;abs 0xda6
 d4c:	2e 34       	jge	$+94     	;abs 0xdaa
 d4e:	2e 33       	jn	$-418    	;abs 0xbac
 d50:	2d 62       	addc	#4,	r13	;r2 As==10
 d52:	75 69       	addc.b	@r9+,	r5	
 d54:	6c 64       	addc.b	@r4,	r12	
 d56:	2f 6d       	addc	@r13,	r15	
 d58:	73 70       	.word	0x7073;	????	Illegal as 2-op instr
 d5a:	34 33       	jn	$-406    	;abs 0xbc4
 d5c:	30 2f       	jc	$-414    	;abs 0xbbe
 d5e:	6d 73       	subc.b	#2,	r13	;r3 As==10
 d60:	70 31       	jn	$+738    	;abs 0x1042
 d62:	2f 6c       	addc	@r12,	r15	
 d64:	69 62       	addc.b	#4,	r9	;r2 As==10
 d66:	67 63       	addc.b	#2,	r7	;r3 As==10
 d68:	63 00       	.word	0x0063;	????	
 d6a:	47 4e       	mov.b	r14,	r7	
 d6c:	55 20       	jnz	$+172    	;abs 0xe18
 d6e:	41 53       	add.b	#0,	r1	;r3 As==00
 d70:	20 32       	jn	$-958    	;abs 0x9b2
 d72:	2e 32       	jn	$-930    	;abs 0x9d0
 d74:	30 2e       	jc	$-926    	;abs 0x9d6
 d76:	31 00       	.word	0x0031;	????	
 d78:	01 80       	sub	r0,	r1	
 d7a:	ed 00       	.word	0x00ed;	????	
 d7c:	00 00       	.word	0x0000;	????	
 d7e:	02 00       	.word	0x0002;	????	
 d80:	6b 02       	.word	0x026b;	????	
 d82:	00 00       	.word	0x0000;	????	
 d84:	02 01       	.word	0x0102;	????	
 d86:	96 03       	.word	0x0396;	????	
 d88:	00 00       	.word	0x0000;	????	
 d8a:	2c f8       	and	@r8,	r12	
 d8c:	30 f8       	and	@r8+,	r0	
 d8e:	2f 55       	add	@r5,	r15	
 d90:	73 65       	.word	0x6573;	????	Illegal as 2-op instr
 d92:	72 73       	subc.b	#-1,	r2	;r3 As==11
 d94:	2f 6a       	addc	@r10,	r15	
 d96:	61 76       	subc.b	@r6,	r1	
 d98:	69 2f       	jc	$-300    	;abs 0xc6c
 d9a:	44 6f       	addc.b	r15,	r4	
 d9c:	77 6e       	addc.b	@r14+,	r7	
 d9e:	6c 6f       	addc.b	@r15,	r12	
 da0:	61 64       	addc.b	@r4,	r1	
 da2:	73 2f       	jc	$-280    	;abs 0xc8a
 da4:	4d 53       	add.b	#0,	r13	;r3 As==00
 da6:	50 34       	jge	$+162    	;abs 0xe48
 da8:	33 30       	jn	$+104    	;abs 0xe10
 daa:	2f 6d       	addc	@r13,	r15	
 dac:	73 70       	.word	0x7073;	????	Illegal as 2-op instr
 dae:	67 63       	addc.b	#2,	r7	;r3 As==10
 db0:	63 34       	jge	$+200    	;abs 0xe78
 db2:	2d 32       	jn	$-932    	;abs 0xa0e
 db4:	30 31       	jn	$+610    	;abs 0x1016
 db6:	30 31       	jn	$+610    	;abs 0x1018
 db8:	30 30       	jn	$+98     	;abs 0xe1a
 dba:	36 2f       	jc	$-402    	;abs 0xc28
 dbc:	62 75       	subc.b	@r5,	r2	
 dbe:	69 6c       	addc.b	@r12,	r9	
 dc0:	64 2f       	jc	$-310    	;abs 0xc8a
 dc2:	67 63       	addc.b	#2,	r7	;r3 As==10
 dc4:	63 2d       	jc	$+712    	;abs 0x108c
 dc6:	34 2e       	jc	$-918    	;abs 0xa30
 dc8:	34 2e       	jc	$-918    	;abs 0xa32
 dca:	33 2d       	jc	$+616    	;abs 0x1032
 dcc:	62 75       	subc.b	@r5,	r2	
 dce:	69 6c       	addc.b	@r12,	r9	
 dd0:	64 2f       	jc	$-310    	;abs 0xc9a
 dd2:	2e 2e       	jc	$-930    	;abs 0xa30
 dd4:	2f 67       	addc	@r7,	r15	
 dd6:	63 63       	.word	0x6363;	????	Illegal as 2-op instr
 dd8:	2d 34       	jge	$+92     	;abs 0xe34
 dda:	2e 34       	jge	$+94     	;abs 0xe38
 ddc:	2e 33       	jn	$-418    	;abs 0xc3a
 dde:	2f 6c       	addc	@r12,	r15	
 de0:	69 62       	addc.b	#4,	r9	;r2 As==10
 de2:	67 63       	addc.b	#2,	r7	;r3 As==10
 de4:	63 2f       	jc	$-312    	;abs 0xcac
 de6:	2e 2e       	jc	$-930    	;abs 0xa44
 de8:	2f 67       	addc	@r7,	r15	
 dea:	63 63       	.word	0x6363;	????	Illegal as 2-op instr
 dec:	2f 63       	addc	#2,	r15	;r3 As==10
 dee:	6f 6e       	addc.b	@r14,	r15	
 df0:	66 69       	addc.b	@r9,	r6	
 df2:	67 2f       	jc	$-304    	;abs 0xcc2
 df4:	6d 73       	subc.b	#2,	r13	;r3 As==10
 df6:	70 34       	jge	$+226    	;abs 0xed8
 df8:	33 30       	jn	$+104    	;abs 0xe60
 dfa:	2f 6c       	addc	@r12,	r15	
 dfc:	69 62       	addc.b	#4,	r9	;r2 As==10
 dfe:	67 63       	addc.b	#2,	r7	;r3 As==10
 e00:	63 2e       	jc	$-824    	;abs 0xac8
 e02:	53 00       	.word	0x0053;	????	
 e04:	2f 55       	add	@r5,	r15	
 e06:	73 65       	.word	0x6573;	????	Illegal as 2-op instr
 e08:	72 73       	subc.b	#-1,	r2	;r3 As==11
 e0a:	2f 6a       	addc	@r10,	r15	
 e0c:	61 76       	subc.b	@r6,	r1	
 e0e:	69 2f       	jc	$-300    	;abs 0xce2
 e10:	44 6f       	addc.b	r15,	r4	
 e12:	77 6e       	addc.b	@r14+,	r7	
 e14:	6c 6f       	addc.b	@r15,	r12	
 e16:	61 64       	addc.b	@r4,	r1	
 e18:	73 2f       	jc	$-280    	;abs 0xd00
 e1a:	4d 53       	add.b	#0,	r13	;r3 As==00
 e1c:	50 34       	jge	$+162    	;abs 0xebe
 e1e:	33 30       	jn	$+104    	;abs 0xe86
 e20:	2f 6d       	addc	@r13,	r15	
 e22:	73 70       	.word	0x7073;	????	Illegal as 2-op instr
 e24:	67 63       	addc.b	#2,	r7	;r3 As==10
 e26:	63 34       	jge	$+200    	;abs 0xeee
 e28:	2d 32       	jn	$-932    	;abs 0xa84
 e2a:	30 31       	jn	$+610    	;abs 0x108c
 e2c:	30 31       	jn	$+610    	;abs 0x108e
 e2e:	30 30       	jn	$+98     	;abs 0xe90
 e30:	36 2f       	jc	$-402    	;abs 0xc9e
 e32:	62 75       	subc.b	@r5,	r2	
 e34:	69 6c       	addc.b	@r12,	r9	
 e36:	64 2f       	jc	$-310    	;abs 0xd00
 e38:	67 63       	addc.b	#2,	r7	;r3 As==10
 e3a:	63 2d       	jc	$+712    	;abs 0x1102
 e3c:	34 2e       	jc	$-918    	;abs 0xaa6
 e3e:	34 2e       	jc	$-918    	;abs 0xaa8
 e40:	33 2d       	jc	$+616    	;abs 0x10a8
 e42:	62 75       	subc.b	@r5,	r2	
 e44:	69 6c       	addc.b	@r12,	r9	
 e46:	64 2f       	jc	$-310    	;abs 0xd10
 e48:	6d 73       	subc.b	#2,	r13	;r3 As==10
 e4a:	70 34       	jge	$+226    	;abs 0xf2c
 e4c:	33 30       	jn	$+104    	;abs 0xeb4
 e4e:	2f 6d       	addc	@r13,	r15	
 e50:	73 70       	.word	0x7073;	????	Illegal as 2-op instr
 e52:	31 2f       	jc	$-412    	;abs 0xcb6
 e54:	6c 69       	addc.b	@r9,	r12	
 e56:	62 67       	addc.b	@r7,	r2	
 e58:	63 63       	.word	0x6363;	????	Illegal as 2-op instr
 e5a:	00 47       	br	r7		
 e5c:	4e 55       	add.b	r5,	r14	
 e5e:	20 41       	br	@r1		
 e60:	53 20       	jnz	$+168    	;abs 0xf08
 e62:	32 2e       	jc	$-922    	;abs 0xac8
 e64:	32 30       	jn	$+102    	;abs 0xeca
 e66:	2e 31       	jn	$+606    	;abs 0x10c4
 e68:	00 01       	.word	0x0100;	????	
 e6a:	80 00       	Address 0x0000000000000e6a is out of bounds.
Address 0x0000000000000e6c is out of bounds.
and.b	@r15+,	-1(r15)	;0xffff(r15)

Disassembly of section .debug_abbrev:

00000000 <.debug_abbrev>:
   0:	01 11       	rra	r1		
   2:	01 25       	jz	$+516    	;abs 0x206
   4:	0e 13       	reti			;return from interupt
   6:	0b 03       	.word	0x030b;	????	
   8:	0e 1b       	.word	0x1b0e;	????	
   a:	0e 11       	rra	r14		
   c:	01 12       	push	r1		
   e:	01 10       	rrc	r1		
  10:	06 00       	.word	0x0006;	????	
  12:	00 02       	.word	0x0200;	????	
  14:	24 00       	.word	0x0024;	????	
  16:	0b 0b       	.word	0x0b0b;	????	
  18:	3e 0b       	.word	0x0b3e;	????	
  1a:	03 0e       	.word	0x0e03;	????	
  1c:	00 00       	.word	0x0000;	????	
  1e:	03 24       	jz	$+8      	;abs 0x26
  20:	00 0b       	.word	0x0b00;	????	
  22:	0b 3e       	jmp	$-1000   	;abs 0xfc3a
  24:	0b 03       	.word	0x030b;	????	
  26:	08 00       	.word	0x0008;	????	
  28:	00 04       	.word	0x0400;	????	
  2a:	13 01       	.word	0x0113;	????	
  2c:	0b 0b       	.word	0x0b0b;	????	
  2e:	3a 0b       	.word	0x0b3a;	????	
  30:	3b 05       	.word	0x053b;	????	
  32:	01 13       	reti			;return from interupt
  34:	00 00       	.word	0x0000;	????	
  36:	05 0d       	.word	0x0d05;	????	
  38:	00 03       	.word	0x0300;	????	
  3a:	0e 3a       	jl	$-994    	;abs 0xfc58
  3c:	0b 3b       	jl	$-488    	;abs 0xfe54
  3e:	05 49       	mov	r9,	r5	
  40:	13 0b       	.word	0x0b13;	????	
  42:	0b 0d       	.word	0x0d0b;	????	
  44:	0b 0c       	.word	0x0c0b;	????	
  46:	0b 38       	jl	$+24     	;abs 0x5e
  48:	0a 00       	.word	0x000a;	????	
  4a:	00 06       	.word	0x0600;	????	
  4c:	35 00       	.word	0x0035;	????	
  4e:	49 13       	.word	0x1349;	????	
  50:	00 00       	.word	0x0000;	????	
  52:	07 16       	.word	0x1607;	????	
  54:	00 03       	.word	0x0300;	????	
  56:	0e 3a       	jl	$-994    	;abs 0xfc74
  58:	0b 3b       	jl	$-488    	;abs 0xfe70
  5a:	05 49       	mov	r9,	r5	
  5c:	13 00       	.word	0x0013;	????	
  5e:	00 08       	.word	0x0800;	????	
  60:	0d 00       	.word	0x000d;	????	
  62:	03 08       	.word	0x0803;	????	
  64:	3a 0b       	.word	0x0b3a;	????	
  66:	3b 05       	.word	0x053b;	????	
  68:	49 13       	.word	0x1349;	????	
  6a:	0b 0b       	.word	0x0b0b;	????	
  6c:	0d 0b       	.word	0x0b0d;	????	
  6e:	0c 0b       	.word	0x0b0c;	????	
  70:	38 0a       	.word	0x0a38;	????	
  72:	00 00       	.word	0x0000;	????	
  74:	09 13       	reti			;return from interupt
  76:	01 03       	.word	0x0301;	????	
  78:	0e 0b       	.word	0x0b0e;	????	
  7a:	0b 3a       	jl	$-1000   	;abs 0xfc92
  7c:	0b 3b       	jl	$-488    	;abs 0xfe94
  7e:	05 01       	.word	0x0105;	????	
  80:	13 00       	.word	0x0013;	????	
  82:	00 0a       	.word	0x0a00;	????	
  84:	0d 00       	.word	0x000d;	????	
  86:	03 08       	.word	0x0803;	????	
  88:	3a 0b       	.word	0x0b3a;	????	
  8a:	3b 05       	.word	0x053b;	????	
  8c:	49 13       	.word	0x1349;	????	
  8e:	38 0a       	.word	0x0a38;	????	
  90:	00 00       	.word	0x0000;	????	
  92:	0b 0d       	.word	0x0d0b;	????	
  94:	00 03       	.word	0x0300;	????	
  96:	0e 3a       	jl	$-994    	;abs 0xfcb4
  98:	0b 3b       	jl	$-488    	;abs 0xfeb0
  9a:	05 49       	mov	r9,	r5	
  9c:	13 38       	jl	$+40     	;abs 0xc4
  9e:	0a 00       	.word	0x000a;	????	
  a0:	00 0c       	.word	0x0c00;	????	
  a2:	01 01       	.word	0x0101;	????	
  a4:	49 13       	.word	0x1349;	????	
  a6:	01 13       	reti			;return from interupt
  a8:	00 00       	.word	0x0000;	????	
  aa:	0d 21       	jnz	$+540    	;abs 0x2c6
  ac:	00 49       	br	r9		
  ae:	13 2f       	jc	$-472    	;abs 0xfed6
  b0:	0b 00       	.word	0x000b;	????	
  b2:	00 0e       	.word	0x0e00;	????	
  b4:	24 00       	.word	0x0024;	????	
  b6:	0b 0b       	.word	0x0b0b;	????	
  b8:	3e 0b       	.word	0x0b3e;	????	
  ba:	00 00       	.word	0x0000;	????	
  bc:	0f 13       	reti			;return from interupt
  be:	01 0b       	.word	0x0b01;	????	
  c0:	0b 3a       	jl	$-1000   	;abs 0xfcd8
  c2:	0b 3b       	jl	$-488    	;abs 0xfeda
  c4:	0b 01       	.word	0x010b;	????	
  c6:	13 00       	.word	0x0013;	????	
  c8:	00 10       	rrc	r0		
  ca:	0d 00       	.word	0x000d;	????	
  cc:	03 0e       	.word	0x0e03;	????	
  ce:	3a 0b       	.word	0x0b3a;	????	
  d0:	3b 0b       	.word	0x0b3b;	????	
  d2:	49 13       	.word	0x1349;	????	
  d4:	0b 0b       	.word	0x0b0b;	????	
  d6:	0d 0b       	.word	0x0b0d;	????	
  d8:	0c 0b       	.word	0x0b0c;	????	
  da:	38 0a       	.word	0x0a38;	????	
  dc:	00 00       	.word	0x0000;	????	
  de:	11 17       	.word	0x1711;	????	
  e0:	01 03       	.word	0x0301;	????	
  e2:	0e 0b       	.word	0x0b0e;	????	
  e4:	0b 3a       	jl	$-1000   	;abs 0xfcfc
  e6:	0b 3b       	jl	$-488    	;abs 0xfefe
  e8:	0b 01       	.word	0x010b;	????	
  ea:	13 00       	.word	0x0013;	????	
  ec:	00 12       	push	r0		
  ee:	0d 00       	.word	0x000d;	????	
  f0:	03 0e       	.word	0x0e03;	????	
  f2:	3a 0b       	.word	0x0b3a;	????	
  f4:	3b 0b       	.word	0x0b3b;	????	
  f6:	49 13       	.word	0x1349;	????	
  f8:	00 00       	.word	0x0000;	????	
  fa:	13 16       	.word	0x1613;	????	
  fc:	00 03       	.word	0x0300;	????	
  fe:	0e 3a       	jl	$-994    	;abs 0xfd1c
 100:	0b 3b       	jl	$-488    	;abs 0xff18
 102:	0b 49       	mov	r9,	r11	
 104:	13 00       	.word	0x0013;	????	
 106:	00 14       	.word	0x1400;	????	
 108:	13 01       	.word	0x0113;	????	
 10a:	03 0e       	.word	0x0e03;	????	
 10c:	0b 0b       	.word	0x0b0b;	????	
 10e:	3a 0b       	.word	0x0b3a;	????	
 110:	3b 0b       	.word	0x0b3b;	????	
 112:	01 13       	reti			;return from interupt
 114:	00 00       	.word	0x0000;	????	
 116:	15 0d       	.word	0x0d15;	????	
 118:	00 03       	.word	0x0300;	????	
 11a:	08 3a       	jl	$-1006   	;abs 0xfd2c
 11c:	0b 3b       	jl	$-488    	;abs 0xff34
 11e:	0b 49       	mov	r9,	r11	
 120:	13 38       	jl	$+40     	;abs 0x148
 122:	0a 00       	.word	0x000a;	????	
 124:	00 16       	.word	0x1600;	????	
 126:	0d 00       	.word	0x000d;	????	
 128:	03 08       	.word	0x0803;	????	
 12a:	3a 0b       	.word	0x0b3a;	????	
 12c:	3b 0b       	.word	0x0b3b;	????	
 12e:	49 13       	.word	0x1349;	????	
 130:	0b 0b       	.word	0x0b0b;	????	
 132:	0d 0b       	.word	0x0b0d;	????	
 134:	0c 0b       	.word	0x0b0c;	????	
 136:	38 0a       	.word	0x0a38;	????	
 138:	00 00       	.word	0x0000;	????	
 13a:	17 0d       	.word	0x0d17;	????	
 13c:	00 03       	.word	0x0300;	????	
 13e:	0e 3a       	jl	$-994    	;abs 0xfd5c
 140:	0b 3b       	jl	$-488    	;abs 0xff58
 142:	0b 49       	mov	r9,	r11	
 144:	13 38       	jl	$+40     	;abs 0x16c
 146:	0a 00       	.word	0x000a;	????	
 148:	00 18       	.word	0x1800;	????	
 14a:	2e 00       	.word	0x002e;	????	
 14c:	3f 0c       	.word	0x0c3f;	????	
 14e:	03 0e       	.word	0x0e03;	????	
 150:	3a 0b       	.word	0x0b3a;	????	
 152:	3b 0b       	.word	0x0b3b;	????	
 154:	20 0b       	.word	0x0b20;	????	
 156:	00 00       	.word	0x0000;	????	
 158:	19 2e       	jc	$-972    	;abs 0xfd8c
 15a:	00 31       	jn	$+514    	;abs 0x35c
 15c:	13 11       	rra	#1		;r3 As==01
 15e:	01 12       	push	r1		
 160:	01 40       	mov	r0,	r1	
 162:	0a 00       	.word	0x000a;	????	
 164:	00 1a       	.word	0x1a00;	????	
 166:	2e 01       	.word	0x012e;	????	
 168:	3f 0c       	.word	0x0c3f;	????	
 16a:	03 0e       	.word	0x0e03;	????	
 16c:	3a 0b       	.word	0x0b3a;	????	
 16e:	3b 0b       	.word	0x0b3b;	????	
 170:	11 01       	.word	0x0111;	????	
 172:	12 01       	.word	0x0112;	????	
 174:	40 0a       	.word	0x0a40;	????	
 176:	01 13       	reti			;return from interupt
 178:	00 00       	.word	0x0000;	????	
 17a:	1b 0b       	.word	0x0b1b;	????	
 17c:	01 11       	rra	r1		
 17e:	01 12       	push	r1		
 180:	01 01       	.word	0x0101;	????	
 182:	13 00       	.word	0x0013;	????	
 184:	00 1c       	.word	0x1c00;	????	
 186:	34 00       	.word	0x0034;	????	
 188:	03 08       	.word	0x0803;	????	
 18a:	3a 0b       	.word	0x0b3a;	????	
 18c:	3b 0b       	.word	0x0b3b;	????	
 18e:	49 13       	.word	0x1349;	????	
 190:	02 06       	.word	0x0602;	????	
 192:	00 00       	.word	0x0000;	????	
 194:	1d 0b       	.word	0x0b1d;	????	
 196:	01 11       	rra	r1		
 198:	01 12       	push	r1		
 19a:	01 00       	.word	0x0001;	????	
 19c:	00 1e       	.word	0x1e00;	????	
 19e:	34 00       	.word	0x0034;	????	
 1a0:	03 0e       	.word	0x0e03;	????	
 1a2:	3a 0b       	.word	0x0b3a;	????	
 1a4:	3b 0b       	.word	0x0b3b;	????	
 1a6:	49 13       	.word	0x1349;	????	
 1a8:	02 06       	.word	0x0602;	????	
 1aa:	00 00       	.word	0x0000;	????	
 1ac:	1f 34       	jge	$+64     	;abs 0x1ec
 1ae:	00 03       	.word	0x0300;	????	
 1b0:	08 3a       	jl	$-1006   	;abs 0xfdc2
 1b2:	0b 3b       	jl	$-488    	;abs 0xffca
 1b4:	0b 49       	mov	r9,	r11	
 1b6:	13 02       	.word	0x0213;	????	
 1b8:	0a 00       	.word	0x000a;	????	
 1ba:	00 20       	jnz	$+2      	;abs 0x1bc
 1bc:	34 00       	.word	0x0034;	????	
 1be:	03 0e       	.word	0x0e03;	????	
 1c0:	3a 0b       	.word	0x0b3a;	????	
 1c2:	3b 0b       	.word	0x0b3b;	????	
 1c4:	49 13       	.word	0x1349;	????	
 1c6:	02 0a       	.word	0x0a02;	????	
 1c8:	00 00       	.word	0x0000;	????	
 1ca:	21 2e       	jc	$-956    	;abs 0xfe0e
 1cc:	01 3f       	jmp	$-508    	;abs 0xffd0
 1ce:	0c 03       	.word	0x030c;	????	
 1d0:	0e 3a       	jl	$-994    	;abs 0xfdee
 1d2:	0b 3b       	jl	$-488    	;abs 0xffea
 1d4:	0b 27       	jz	$-488    	;abs 0xffec
 1d6:	0c 49       	mov	r9,	r12	
 1d8:	13 11       	rra	#1		;r3 As==01
 1da:	01 12       	push	r1		
 1dc:	01 40       	mov	r0,	r1	
 1de:	0a 01       	.word	0x010a;	????	
 1e0:	13 00       	.word	0x0013;	????	
 1e2:	00 22       	jnz	$-1022   	;abs 0xfde4
 1e4:	1d 00       	.word	0x001d;	????	
 1e6:	31 13       	reti			;return from interupt
 1e8:	11 01       	.word	0x0111;	????	
 1ea:	12 01       	.word	0x0112;	????	
 1ec:	58 0b       	.word	0x0b58;	????	
 1ee:	59 0b       	.word	0x0b59;	????	
 1f0:	00 00       	.word	0x0000;	????	
 1f2:	23 34       	jge	$+72     	;abs 0x23a
 1f4:	00 03       	.word	0x0300;	????	
 1f6:	0e 3a       	jl	$-994    	;abs 0xfe14
 1f8:	0b 3b       	jl	$-488    	;abs 0x10
 1fa:	0b 87       	sub	r7,	r11	
 1fc:	40 0e       	.word	0x0e40;	????	
 1fe:	49 13       	.word	0x1349;	????	
 200:	3f 0c       	.word	0x0c3f;	????	
 202:	02 0a       	.word	0x0a02;	????	
 204:	00 00       	.word	0x0000;	????	
 206:	24 34       	jge	$+74     	;abs 0x250
 208:	00 03       	.word	0x0300;	????	
 20a:	0e 3a       	jl	$-994    	;abs 0xfe28
 20c:	0b 3b       	jl	$-488    	;abs 0x24
 20e:	05 87       	sub	r7,	r5	
 210:	40 0e       	.word	0x0e40;	????	
 212:	49 13       	.word	0x1349;	????	
 214:	3f 0c       	.word	0x0c3f;	????	
 216:	02 0a       	.word	0x0a02;	????	
 218:	00 00       	.word	0x0000;	????	
 21a:	25 34       	jge	$+76     	;abs 0x266
 21c:	00 03       	.word	0x0300;	????	
 21e:	08 3a       	jl	$-1006   	;abs 0xfe30
 220:	0b 3b       	jl	$-488    	;abs 0x38
 222:	0b 87       	sub	r7,	r11	
 224:	40 0e       	.word	0x0e40;	????	
 226:	49 13       	.word	0x1349;	????	
 228:	3f 0c       	.word	0x0c3f;	????	
 22a:	02 0a       	.word	0x0a02;	????	
 22c:	00 00       	.word	0x0000;	????	
 22e:	00 01       	.word	0x0100;	????	
 230:	11 00       	.word	0x0011;	????	
 232:	10 06       	.word	0x0610;	????	
 234:	11 01       	.word	0x0111;	????	
 236:	12 01       	.word	0x0112;	????	
 238:	03 08       	.word	0x0803;	????	
 23a:	1b 08       	.word	0x081b;	????	
 23c:	25 08       	.word	0x0825;	????	
 23e:	13 05       	.word	0x0513;	????	
 240:	00 00       	.word	0x0000;	????	
 242:	00 01       	.word	0x0100;	????	
 244:	11 00       	.word	0x0011;	????	
 246:	10 06       	.word	0x0610;	????	
 248:	11 01       	.word	0x0111;	????	
 24a:	12 01       	.word	0x0112;	????	
 24c:	03 08       	.word	0x0803;	????	
 24e:	1b 08       	.word	0x081b;	????	
 250:	25 08       	.word	0x0825;	????	
 252:	13 05       	.word	0x0513;	????	
 254:	00 00       	.word	0x0000;	????	
 256:	00 01       	.word	0x0100;	????	
 258:	11 00       	.word	0x0011;	????	
 25a:	10 06       	.word	0x0610;	????	
 25c:	11 01       	.word	0x0111;	????	
 25e:	12 01       	.word	0x0112;	????	
 260:	03 08       	.word	0x0803;	????	
 262:	1b 08       	.word	0x081b;	????	
 264:	25 08       	.word	0x0825;	????	
 266:	13 05       	.word	0x0513;	????	
 268:	00 00       	.word	0x0000;	????	
 26a:	00 01       	.word	0x0100;	????	
 26c:	11 00       	.word	0x0011;	????	
 26e:	10 06       	.word	0x0610;	????	
 270:	11 01       	.word	0x0111;	????	
 272:	12 01       	.word	0x0112;	????	
 274:	03 08       	.word	0x0803;	????	
 276:	1b 08       	.word	0x081b;	????	
 278:	25 08       	.word	0x0825;	????	
 27a:	13 05       	.word	0x0513;	????	
 27c:	00 00       	.word	0x0000;	????	
	...

Disassembly of section .debug_line:

00000000 <.debug_line>:
   0:	9c 01       	.word	0x019c;	????	
   2:	00 00       	.word	0x0000;	????	
   4:	02 00       	.word	0x0002;	????	
   6:	6c 01       	.word	0x016c;	????	
   8:	00 00       	.word	0x0000;	????	
   a:	01 01       	.word	0x0101;	????	
   c:	fb 0e       	.word	0x0efb;	????	
   e:	0d 00       	.word	0x000d;	????	
  10:	01 01       	.word	0x0101;	????	
  12:	01 01       	.word	0x0101;	????	
  14:	00 00       	.word	0x0000;	????	
  16:	00 01       	.word	0x0100;	????	
  18:	00 00       	.word	0x0000;	????	
  1a:	01 6c       	addc	r12,	r1	
  1c:	69 62       	addc.b	#4,	r9	;r2 As==10
  1e:	72 61       	addc.b	@r1+,	r2	
  20:	72 69       	addc.b	@r9+,	r2	
  22:	65 73       	subc.b	#2,	r5	;r3 As==10
  24:	00 2f       	jc	$-510    	;abs 0xfe26
  26:	75 73       	subc.b	#-1,	r5	;r3 As==11
  28:	72 2f       	jc	$-282    	;abs 0xff0e
  2a:	6c 6f       	addc.b	@r15,	r12	
  2c:	63 61       	.word	0x6163;	????	Illegal as 2-op instr
  2e:	6c 2f       	jc	$-294    	;abs 0xff08
  30:	6d 73       	subc.b	#2,	r13	;r3 As==10
  32:	70 34       	jge	$+226    	;abs 0x114
  34:	33 30       	jn	$+104    	;abs 0x9c
  36:	2d 67       	addc	@r7,	r13	
  38:	63 63       	.word	0x6363;	????	Illegal as 2-op instr
  3a:	2d 34       	jge	$+92     	;abs 0x96
  3c:	2e 34       	jge	$+94     	;abs 0x9a
  3e:	2e 33       	jn	$-418    	;abs 0xfe9c
  40:	2f 62       	addc	#4,	r15	;r2 As==10
  42:	69 6e       	addc.b	@r14,	r9	
  44:	2f 2e       	jc	$-928    	;abs 0xfca4
  46:	2e 2f       	jc	$-418    	;abs 0xfea4
  48:	6c 69       	addc.b	@r9,	r12	
  4a:	62 2f       	jc	$-314    	;abs 0xff10
  4c:	67 63       	addc.b	#2,	r7	;r3 As==10
  4e:	63 2f       	jc	$-312    	;abs 0xff16
  50:	6d 73       	subc.b	#2,	r13	;r3 As==10
  52:	70 34       	jge	$+226    	;abs 0x134
  54:	33 30       	jn	$+104    	;abs 0xbc
  56:	2f 34       	jge	$+96     	;abs 0xb6
  58:	2e 34       	jge	$+94     	;abs 0xb6
  5a:	2e 33       	jn	$-418    	;abs 0xfeb8
  5c:	2f 2e       	jc	$-928    	;abs 0xfcbc
  5e:	2e 2f       	jc	$-418    	;abs 0xfebc
  60:	2e 2e       	jc	$-930    	;abs 0xfcbe
  62:	2f 2e       	jc	$-928    	;abs 0xfcc2
  64:	2e 2f       	jc	$-418    	;abs 0xfec2
  66:	2e 2e       	jc	$-930    	;abs 0xfcc4
  68:	2f 6d       	addc	@r13,	r15	
  6a:	73 70       	.word	0x7073;	????	Illegal as 2-op instr
  6c:	34 33       	jn	$-406    	;abs 0xfed6
  6e:	30 2f       	jc	$-414    	;abs 0xfed0
  70:	69 6e       	addc.b	@r14,	r9	
  72:	63 6c       	.word	0x6c63;	????	Illegal as 2-op instr
  74:	75 64       	addc.b	@r4+,	r5	
  76:	65 2f       	jc	$-308    	;abs 0xff42
  78:	6d 73       	subc.b	#2,	r13	;r3 As==10
  7a:	70 34       	jge	$+226    	;abs 0x15c
  7c:	33 30       	jn	$+104    	;abs 0xe4
  7e:	00 2f       	jc	$-510    	;abs 0xfe80
  80:	75 73       	subc.b	#-1,	r5	;r3 As==11
  82:	72 2f       	jc	$-282    	;abs 0xff68
  84:	6c 6f       	addc.b	@r15,	r12	
  86:	63 61       	.word	0x6163;	????	Illegal as 2-op instr
  88:	6c 2f       	jc	$-294    	;abs 0xff62
  8a:	6d 73       	subc.b	#2,	r13	;r3 As==10
  8c:	70 34       	jge	$+226    	;abs 0x16e
  8e:	33 30       	jn	$+104    	;abs 0xf6
  90:	2d 67       	addc	@r7,	r13	
  92:	63 63       	.word	0x6363;	????	Illegal as 2-op instr
  94:	2d 34       	jge	$+92     	;abs 0xf0
  96:	2e 34       	jge	$+94     	;abs 0xf4
  98:	2e 33       	jn	$-418    	;abs 0xfef6
  9a:	2f 62       	addc	#4,	r15	;r2 As==10
  9c:	69 6e       	addc.b	@r14,	r9	
  9e:	2f 2e       	jc	$-928    	;abs 0xfcfe
  a0:	2e 2f       	jc	$-418    	;abs 0xfefe
  a2:	6c 69       	addc.b	@r9,	r12	
  a4:	62 2f       	jc	$-314    	;abs 0xff6a
  a6:	67 63       	addc.b	#2,	r7	;r3 As==10
  a8:	63 2f       	jc	$-312    	;abs 0xff70
  aa:	6d 73       	subc.b	#2,	r13	;r3 As==10
  ac:	70 34       	jge	$+226    	;abs 0x18e
  ae:	33 30       	jn	$+104    	;abs 0x116
  b0:	2f 34       	jge	$+96     	;abs 0x110
  b2:	2e 34       	jge	$+94     	;abs 0x110
  b4:	2e 33       	jn	$-418    	;abs 0xff12
  b6:	2f 2e       	jc	$-928    	;abs 0xfd16
  b8:	2e 2f       	jc	$-418    	;abs 0xff16
  ba:	2e 2e       	jc	$-930    	;abs 0xfd18
  bc:	2f 2e       	jc	$-928    	;abs 0xfd1c
  be:	2e 2f       	jc	$-418    	;abs 0xff1c
  c0:	2e 2e       	jc	$-930    	;abs 0xfd1e
  c2:	2f 6d       	addc	@r13,	r15	
  c4:	73 70       	.word	0x7073;	????	Illegal as 2-op instr
  c6:	34 33       	jn	$-406    	;abs 0xff30
  c8:	30 2f       	jc	$-414    	;abs 0xff2a
  ca:	69 6e       	addc.b	@r14,	r9	
  cc:	63 6c       	.word	0x6c63;	????	Illegal as 2-op instr
  ce:	75 64       	addc.b	@r4+,	r5	
  d0:	65 00       	.word	0x0065;	????	
  d2:	00 6d       	addc	r13,	r0	
  d4:	61 69       	addc.b	@r9,	r1	
  d6:	6e 2e       	jc	$-802    	;abs 0xfdb4
  d8:	63 00       	.word	0x0063;	????	
  da:	00 00       	.word	0x0000;	????	
  dc:	00 66       	addc	r6,	r0	
  de:	72 69       	addc.b	@r9+,	r2	
  e0:	65 6e       	addc.b	@r14,	r5	
  e2:	64 6c       	addc.b	@r12,	r4	
  e4:	79 5f       	add.b	@r15+,	r9	
  e6:	6c 61       	addc.b	@r1,	r12	
  e8:	75 6e       	addc.b	@r14+,	r5	
  ea:	63 68       	.word	0x6863;	????	Illegal as 2-op instr
  ec:	70 61       	addc.b	@r1+,	r0	
  ee:	64 2e       	jc	$-822    	;abs 0xfdb8
  f0:	68 00       	.word	0x0068;	????	
  f2:	01 00       	.word	0x0001;	????	
  f4:	00 74       	subc	r4,	r0	
  f6:	69 6d       	addc.b	@r13,	r9	
  f8:	65 72       	subc.b	#4,	r5	;r2 As==10
  fa:	61 2e       	jc	$-828    	;abs 0xfdbe
  fc:	68 00       	.word	0x0068;	????	
  fe:	02 00       	.word	0x0002;	????	
 100:	00 69       	addc	r9,	r0	
 102:	6f 73       	subc.b	#2,	r15	;r3 As==10
 104:	74 72       	subc.b	#8,	r4	;r2 As==11
 106:	75 63       	addc.b	#-1,	r5	;r3 As==11
 108:	74 75       	subc.b	@r5+,	r4	
 10a:	72 65       	addc.b	@r5+,	r2	
 10c:	73 2e       	jc	$-792    	;abs 0xfdf4
 10e:	68 00       	.word	0x0068;	????	
 110:	02 00       	.word	0x0002;	????	
 112:	00 61       	addc	r1,	r0	
 114:	64 63       	addc.b	#2,	r4	;r3 As==10
 116:	31 30       	jn	$+100    	;abs 0x17a
 118:	2e 68       	addc	@r8,	r14	
 11a:	00 02       	.word	0x0200;	????	
 11c:	00 00       	.word	0x0000;	????	
 11e:	62 61       	addc.b	@r1,	r2	
 120:	73 69       	.word	0x6973;	????	Illegal as 2-op instr
 122:	63 5f       	.word	0x5f63;	????	Illegal as 2-op instr
 124:	63 6c       	.word	0x6c63;	????	Illegal as 2-op instr
 126:	6f 63       	addc.b	#2,	r15	;r3 As==10
 128:	6b 2e       	jc	$-808    	;abs 0xfe00
 12a:	68 00       	.word	0x0068;	????	
 12c:	02 00       	.word	0x0002;	????	
 12e:	00 66       	addc	r6,	r0	
 130:	6c 61       	addc.b	@r1,	r12	
 132:	73 68       	.word	0x6873;	????	Illegal as 2-op instr
 134:	2e 68       	addc	@r8,	r14	
 136:	00 02       	.word	0x0200;	????	
 138:	00 00       	.word	0x0000;	????	
 13a:	65 70       	subc.b	@r0,	r5	
 13c:	72 6f       	addc.b	@r15+,	r2	
 13e:	6d 2e       	jc	$-804    	;abs 0xfe1a
 140:	68 00       	.word	0x0068;	????	
 142:	02 00       	.word	0x0002;	????	
 144:	00 67       	addc	r7,	r0	
 146:	70 69       	addc.b	@r9+,	r0	
 148:	6f 2e       	jc	$-800    	;abs 0xfe28
 14a:	68 00       	.word	0x0068;	????	
 14c:	02 00       	.word	0x0002;	????	
 14e:	00 75       	subc	r5,	r0	
 150:	73 69       	.word	0x6973;	????	Illegal as 2-op instr
 152:	2e 68       	addc	@r8,	r14	
 154:	00 02       	.word	0x0200;	????	
 156:	00 00       	.word	0x0000;	????	
 158:	63 6f       	.word	0x6f63;	????	Illegal as 2-op instr
 15a:	6d 6d       	addc.b	@r13,	r13	
 15c:	6f 6e       	addc.b	@r14,	r15	
 15e:	2e 68       	addc	@r8,	r14	
 160:	00 02       	.word	0x0200;	????	
 162:	00 00       	.word	0x0000;	????	
 164:	6d 73       	subc.b	#2,	r13	;r3 As==10
 166:	70 34       	jge	$+226    	;abs 0x248
 168:	33 30       	jn	$+104    	;abs 0x1d0
 16a:	78 32       	jn	$-782    	;abs 0xfe5c
 16c:	30 78       	subc	@r8+,	r0	
 16e:	32 2e       	jc	$-922    	;abs 0xfdd4
 170:	68 00       	.word	0x0068;	????	
 172:	03 00       	.word	0x0003;	????	
 174:	00 00       	.word	0x0000;	????	
 176:	00 03       	.word	0x0300;	????	
 178:	02 34       	jge	$+6      	;abs 0x17e
 17a:	f8 14       	.word	0x14f8;	????	
 17c:	14 4c 67 30 	mov	12391(r12),r4	;0x3067(r12)
 180:	14 4b 9f 08 	mov	2207(r11),r4	;0x089f(r11)
 184:	91 4b 9f 04 	mov	1183(r11),770(r1)	;0x049f(r11), 0x0302(r1)
 188:	02 03 
 18a:	0d 08       	.word	0x080d;	????	
 18c:	ac 4c 6c 4b 	mov	@r12,	19308(r12);0x4b6c(r12)
 190:	04 01       	.word	0x0104;	????	
 192:	03 5e       	.word	0x5e03;	????	Illegal as 2-op instr
 194:	4a 4c       	mov.b	r12,	r10	
 196:	04 02       	.word	0x0204;	????	
 198:	03 24       	jz	$+8      	;abs 0x1a0
 19a:	66 02       	.word	0x0266;	????	
 19c:	06 00       	.word	0x0006;	????	
 19e:	01 01       	.word	0x0101;	????	
 1a0:	a0 00       	.word	0x00a0;	????	
 1a2:	00 00       	.word	0x0000;	????	
 1a4:	02 00       	.word	0x0002;	????	
 1a6:	8c 00       	.word	0x008c;	????	
 1a8:	00 00       	.word	0x0000;	????	
 1aa:	01 01       	.word	0x0101;	????	
 1ac:	fb 0e       	.word	0x0efb;	????	
 1ae:	0d 00       	.word	0x000d;	????	
 1b0:	01 01       	.word	0x0101;	????	
 1b2:	01 01       	.word	0x0101;	????	
 1b4:	00 00       	.word	0x0000;	????	
 1b6:	00 01       	.word	0x0100;	????	
 1b8:	00 00       	.word	0x0000;	????	
 1ba:	01 2f       	jc	$-508    	;abs 0xffbe
 1bc:	55 73       	subc.b	#1,	r5	;r3 As==01
 1be:	65 72       	subc.b	#4,	r5	;r2 As==10
 1c0:	73 2f       	jc	$-280    	;abs 0xa8
 1c2:	6a 61       	addc.b	@r1,	r10	
 1c4:	76 69       	addc.b	@r9+,	r6	
 1c6:	2f 44       	mov	@r4,	r15	
 1c8:	6f 77       	subc.b	@r7,	r15	
 1ca:	6e 6c       	addc.b	@r12,	r14	
 1cc:	6f 61       	addc.b	@r1,	r15	
 1ce:	64 73       	subc.b	#2,	r4	;r3 As==10
 1d0:	2f 4d       	mov	@r13,	r15	
 1d2:	53 50       	.word	0x5053;	????	Illegal as 2-op instr
 1d4:	34 33       	jn	$-406    	;abs 0x3e
 1d6:	30 2f       	jc	$-414    	;abs 0x38
 1d8:	6d 73       	subc.b	#2,	r13	;r3 As==10
 1da:	70 67       	addc.b	@r7+,	r0	
 1dc:	63 63       	.word	0x6363;	????	Illegal as 2-op instr
 1de:	34 2d       	jc	$+618    	;abs 0x448
 1e0:	32 30       	jn	$+102    	;abs 0x246
 1e2:	31 30       	jn	$+100    	;abs 0x246
 1e4:	31 30       	jn	$+100    	;abs 0x248
 1e6:	30 36       	jge	$-926    	;abs 0xfe48
 1e8:	2f 62       	addc	#4,	r15	;r2 As==10
 1ea:	75 69       	addc.b	@r9+,	r5	
 1ec:	6c 64       	addc.b	@r4,	r12	
 1ee:	2f 67       	addc	@r7,	r15	
 1f0:	63 63       	.word	0x6363;	????	Illegal as 2-op instr
 1f2:	2d 34       	jge	$+92     	;abs 0x24e
 1f4:	2e 34       	jge	$+94     	;abs 0x252
 1f6:	2e 33       	jn	$-418    	;abs 0x54
 1f8:	2d 62       	addc	#4,	r13	;r2 As==10
 1fa:	75 69       	addc.b	@r9+,	r5	
 1fc:	6c 64       	addc.b	@r4,	r12	
 1fe:	2f 2e       	jc	$-928    	;abs 0xfe5e
 200:	2e 2f       	jc	$-418    	;abs 0x5e
 202:	67 63       	addc.b	#2,	r7	;r3 As==10
 204:	63 2d       	jc	$+712    	;abs 0x4cc
 206:	34 2e       	jc	$-918    	;abs 0xfe70
 208:	34 2e       	jc	$-918    	;abs 0xfe72
 20a:	33 2f       	jc	$-408    	;abs 0x72
 20c:	6c 69       	addc.b	@r9,	r12	
 20e:	62 67       	addc.b	@r7,	r2	
 210:	63 63       	.word	0x6363;	????	Illegal as 2-op instr
 212:	2f 2e       	jc	$-928    	;abs 0xfe72
 214:	2e 2f       	jc	$-418    	;abs 0x72
 216:	67 63       	addc.b	#2,	r7	;r3 As==10
 218:	63 2f       	jc	$-312    	;abs 0xe0
 21a:	63 6f       	.word	0x6f63;	????	Illegal as 2-op instr
 21c:	6e 66       	addc.b	@r6,	r14	
 21e:	69 67       	addc.b	@r7,	r9	
 220:	2f 6d       	addc	@r13,	r15	
 222:	73 70       	.word	0x7073;	????	Illegal as 2-op instr
 224:	34 33       	jn	$-406    	;abs 0x8e
 226:	30 00       	.word	0x0030;	????	
 228:	00 6c       	addc	r12,	r0	
 22a:	69 62       	addc.b	#4,	r9	;r2 As==10
 22c:	67 63       	addc.b	#2,	r7	;r3 As==10
 22e:	63 2e       	jc	$-824    	;abs 0xfef6
 230:	53 00       	.word	0x0053;	????	
 232:	01 00       	.word	0x0001;	????	
 234:	00 00       	.word	0x0000;	????	
 236:	00 03       	.word	0x0300;	????	
 238:	02 00       	.word	0x0002;	????	
 23a:	f8 03       	.word	0x03f8;	????	
 23c:	e6 04       	.word	0x04e6;	????	
 23e:	01 02       	.word	0x0201;	????	
 240:	04 00       	.word	0x0004;	????	
 242:	01 01       	.word	0x0101;	????	
 244:	a5 00       	.word	0x00a5;	????	
 246:	00 00       	.word	0x0000;	????	
 248:	02 00       	.word	0x0002;	????	
 24a:	8c 00       	.word	0x008c;	????	
 24c:	00 00       	.word	0x0000;	????	
 24e:	01 01       	.word	0x0101;	????	
 250:	fb 0e       	.word	0x0efb;	????	
 252:	0d 00       	.word	0x000d;	????	
 254:	01 01       	.word	0x0101;	????	
 256:	01 01       	.word	0x0101;	????	
 258:	00 00       	.word	0x0000;	????	
 25a:	00 01       	.word	0x0100;	????	
 25c:	00 00       	.word	0x0000;	????	
 25e:	01 2f       	jc	$-508    	;abs 0x62
 260:	55 73       	subc.b	#1,	r5	;r3 As==01
 262:	65 72       	subc.b	#4,	r5	;r2 As==10
 264:	73 2f       	jc	$-280    	;abs 0x14c
 266:	6a 61       	addc.b	@r1,	r10	
 268:	76 69       	addc.b	@r9+,	r6	
 26a:	2f 44       	mov	@r4,	r15	
 26c:	6f 77       	subc.b	@r7,	r15	
 26e:	6e 6c       	addc.b	@r12,	r14	
 270:	6f 61       	addc.b	@r1,	r15	
 272:	64 73       	subc.b	#2,	r4	;r3 As==10
 274:	2f 4d       	mov	@r13,	r15	
 276:	53 50       	.word	0x5053;	????	Illegal as 2-op instr
 278:	34 33       	jn	$-406    	;abs 0xe2
 27a:	30 2f       	jc	$-414    	;abs 0xdc
 27c:	6d 73       	subc.b	#2,	r13	;r3 As==10
 27e:	70 67       	addc.b	@r7+,	r0	
 280:	63 63       	.word	0x6363;	????	Illegal as 2-op instr
 282:	34 2d       	jc	$+618    	;abs 0x4ec
 284:	32 30       	jn	$+102    	;abs 0x2ea
 286:	31 30       	jn	$+100    	;abs 0x2ea
 288:	31 30       	jn	$+100    	;abs 0x2ec
 28a:	30 36       	jge	$-926    	;abs 0xfeec
 28c:	2f 62       	addc	#4,	r15	;r2 As==10
 28e:	75 69       	addc.b	@r9+,	r5	
 290:	6c 64       	addc.b	@r4,	r12	
 292:	2f 67       	addc	@r7,	r15	
 294:	63 63       	.word	0x6363;	????	Illegal as 2-op instr
 296:	2d 34       	jge	$+92     	;abs 0x2f2
 298:	2e 34       	jge	$+94     	;abs 0x2f6
 29a:	2e 33       	jn	$-418    	;abs 0xf8
 29c:	2d 62       	addc	#4,	r13	;r2 As==10
 29e:	75 69       	addc.b	@r9+,	r5	
 2a0:	6c 64       	addc.b	@r4,	r12	
 2a2:	2f 2e       	jc	$-928    	;abs 0xff02
 2a4:	2e 2f       	jc	$-418    	;abs 0x102
 2a6:	67 63       	addc.b	#2,	r7	;r3 As==10
 2a8:	63 2d       	jc	$+712    	;abs 0x570
 2aa:	34 2e       	jc	$-918    	;abs 0xff14
 2ac:	34 2e       	jc	$-918    	;abs 0xff16
 2ae:	33 2f       	jc	$-408    	;abs 0x116
 2b0:	6c 69       	addc.b	@r9,	r12	
 2b2:	62 67       	addc.b	@r7,	r2	
 2b4:	63 63       	.word	0x6363;	????	Illegal as 2-op instr
 2b6:	2f 2e       	jc	$-928    	;abs 0xff16
 2b8:	2e 2f       	jc	$-418    	;abs 0x116
 2ba:	67 63       	addc.b	#2,	r7	;r3 As==10
 2bc:	63 2f       	jc	$-312    	;abs 0x184
 2be:	63 6f       	.word	0x6f63;	????	Illegal as 2-op instr
 2c0:	6e 66       	addc.b	@r6,	r14	
 2c2:	69 67       	addc.b	@r7,	r9	
 2c4:	2f 6d       	addc	@r13,	r15	
 2c6:	73 70       	.word	0x7073;	????	Illegal as 2-op instr
 2c8:	34 33       	jn	$-406    	;abs 0x132
 2ca:	30 00       	.word	0x0030;	????	
 2cc:	00 6c       	addc	r12,	r0	
 2ce:	69 62       	addc.b	#4,	r9	;r2 As==10
 2d0:	67 63       	addc.b	#2,	r7	;r3 As==10
 2d2:	63 2e       	jc	$-824    	;abs 0xff9a
 2d4:	53 00       	.word	0x0053;	????	
 2d6:	01 00       	.word	0x0001;	????	
 2d8:	00 00       	.word	0x0000;	????	
 2da:	00 03       	.word	0x0300;	????	
 2dc:	02 0a       	.word	0x0a02;	????	
 2de:	f8 03       	.word	0x03f8;	????	
 2e0:	8b 05       	.word	0x058b;	????	
 2e2:	01 4b       	mov	r11,	r1	
 2e4:	4b 14       	.word	0x144b;	????	
 2e6:	2f 83       	decd	r15		
 2e8:	02 00       	.word	0x0002;	????	
 2ea:	00 01       	.word	0x0100;	????	
 2ec:	01 a5       	dadd	r5,	r1	
 2ee:	00 00       	.word	0x0000;	????	
 2f0:	00 02       	.word	0x0200;	????	
 2f2:	00 8c       	sub	r12,	r0	
 2f4:	00 00       	.word	0x0000;	????	
 2f6:	00 01       	.word	0x0100;	????	
 2f8:	01 fb       	and	r11,	r1	
 2fa:	0e 0d       	.word	0x0d0e;	????	
 2fc:	00 01       	.word	0x0100;	????	
 2fe:	01 01       	.word	0x0101;	????	
 300:	01 00       	.word	0x0001;	????	
 302:	00 00       	.word	0x0000;	????	
 304:	01 00       	.word	0x0001;	????	
 306:	00 01       	.word	0x0100;	????	
 308:	2f 55       	add	@r5,	r15	
 30a:	73 65       	.word	0x6573;	????	Illegal as 2-op instr
 30c:	72 73       	subc.b	#-1,	r2	;r3 As==11
 30e:	2f 6a       	addc	@r10,	r15	
 310:	61 76       	subc.b	@r6,	r1	
 312:	69 2f       	jc	$-300    	;abs 0x1e6
 314:	44 6f       	addc.b	r15,	r4	
 316:	77 6e       	addc.b	@r14+,	r7	
 318:	6c 6f       	addc.b	@r15,	r12	
 31a:	61 64       	addc.b	@r4,	r1	
 31c:	73 2f       	jc	$-280    	;abs 0x204
 31e:	4d 53       	add.b	#0,	r13	;r3 As==00
 320:	50 34       	jge	$+162    	;abs 0x3c2
 322:	33 30       	jn	$+104    	;abs 0x38a
 324:	2f 6d       	addc	@r13,	r15	
 326:	73 70       	.word	0x7073;	????	Illegal as 2-op instr
 328:	67 63       	addc.b	#2,	r7	;r3 As==10
 32a:	63 34       	jge	$+200    	;abs 0x3f2
 32c:	2d 32       	jn	$-932    	;abs 0xff88
 32e:	30 31       	jn	$+610    	;abs 0x590
 330:	30 31       	jn	$+610    	;abs 0x592
 332:	30 30       	jn	$+98     	;abs 0x394
 334:	36 2f       	jc	$-402    	;abs 0x1a2
 336:	62 75       	subc.b	@r5,	r2	
 338:	69 6c       	addc.b	@r12,	r9	
 33a:	64 2f       	jc	$-310    	;abs 0x204
 33c:	67 63       	addc.b	#2,	r7	;r3 As==10
 33e:	63 2d       	jc	$+712    	;abs 0x606
 340:	34 2e       	jc	$-918    	;abs 0xffaa
 342:	34 2e       	jc	$-918    	;abs 0xffac
 344:	33 2d       	jc	$+616    	;abs 0x5ac
 346:	62 75       	subc.b	@r5,	r2	
 348:	69 6c       	addc.b	@r12,	r9	
 34a:	64 2f       	jc	$-310    	;abs 0x214
 34c:	2e 2e       	jc	$-930    	;abs 0xffaa
 34e:	2f 67       	addc	@r7,	r15	
 350:	63 63       	.word	0x6363;	????	Illegal as 2-op instr
 352:	2d 34       	jge	$+92     	;abs 0x3ae
 354:	2e 34       	jge	$+94     	;abs 0x3b2
 356:	2e 33       	jn	$-418    	;abs 0x1b4
 358:	2f 6c       	addc	@r12,	r15	
 35a:	69 62       	addc.b	#4,	r9	;r2 As==10
 35c:	67 63       	addc.b	#2,	r7	;r3 As==10
 35e:	63 2f       	jc	$-312    	;abs 0x226
 360:	2e 2e       	jc	$-930    	;abs 0xffbe
 362:	2f 67       	addc	@r7,	r15	
 364:	63 63       	.word	0x6363;	????	Illegal as 2-op instr
 366:	2f 63       	addc	#2,	r15	;r3 As==10
 368:	6f 6e       	addc.b	@r14,	r15	
 36a:	66 69       	addc.b	@r9,	r6	
 36c:	67 2f       	jc	$-304    	;abs 0x23c
 36e:	6d 73       	subc.b	#2,	r13	;r3 As==10
 370:	70 34       	jge	$+226    	;abs 0x452
 372:	33 30       	jn	$+104    	;abs 0x3da
 374:	00 00       	.word	0x0000;	????	
 376:	6c 69       	addc.b	@r9,	r12	
 378:	62 67       	addc.b	@r7,	r2	
 37a:	63 63       	.word	0x6363;	????	Illegal as 2-op instr
 37c:	2e 53       	incd	r14		
 37e:	00 01       	.word	0x0100;	????	
 380:	00 00       	.word	0x0000;	????	
 382:	00 00       	.word	0x0000;	????	
 384:	03 02       	.word	0x0203;	????	
 386:	1c f8 03 a4 	and	-23549(r8),r12	;0xa403(r8)
 38a:	05 01       	.word	0x0105;	????	
 38c:	4b 4b       	mov.b	r11,	r11	
 38e:	14 2f       	jc	$-470    	;abs 0x1b8
 390:	67 02       	.word	0x0267;	????	
 392:	00 00       	.word	0x0000;	????	
 394:	01 01       	.word	0x0101;	????	
 396:	a0 00       	.word	0x00a0;	????	
 398:	00 00       	.word	0x0000;	????	
 39a:	02 00       	.word	0x0002;	????	
 39c:	8c 00       	.word	0x008c;	????	
 39e:	00 00       	.word	0x0000;	????	
 3a0:	01 01       	.word	0x0101;	????	
 3a2:	fb 0e       	.word	0x0efb;	????	
 3a4:	0d 00       	.word	0x000d;	????	
 3a6:	01 01       	.word	0x0101;	????	
 3a8:	01 01       	.word	0x0101;	????	
 3aa:	00 00       	.word	0x0000;	????	
 3ac:	00 01       	.word	0x0100;	????	
 3ae:	00 00       	.word	0x0000;	????	
 3b0:	01 2f       	jc	$-508    	;abs 0x1b4
 3b2:	55 73       	subc.b	#1,	r5	;r3 As==01
 3b4:	65 72       	subc.b	#4,	r5	;r2 As==10
 3b6:	73 2f       	jc	$-280    	;abs 0x29e
 3b8:	6a 61       	addc.b	@r1,	r10	
 3ba:	76 69       	addc.b	@r9+,	r6	
 3bc:	2f 44       	mov	@r4,	r15	
 3be:	6f 77       	subc.b	@r7,	r15	
 3c0:	6e 6c       	addc.b	@r12,	r14	
 3c2:	6f 61       	addc.b	@r1,	r15	
 3c4:	64 73       	subc.b	#2,	r4	;r3 As==10
 3c6:	2f 4d       	mov	@r13,	r15	
 3c8:	53 50       	.word	0x5053;	????	Illegal as 2-op instr
 3ca:	34 33       	jn	$-406    	;abs 0x234
 3cc:	30 2f       	jc	$-414    	;abs 0x22e
 3ce:	6d 73       	subc.b	#2,	r13	;r3 As==10
 3d0:	70 67       	addc.b	@r7+,	r0	
 3d2:	63 63       	.word	0x6363;	????	Illegal as 2-op instr
 3d4:	34 2d       	jc	$+618    	;abs 0x63e
 3d6:	32 30       	jn	$+102    	;abs 0x43c
 3d8:	31 30       	jn	$+100    	;abs 0x43c
 3da:	31 30       	jn	$+100    	;abs 0x43e
 3dc:	30 36       	jge	$-926    	;abs 0x3e
 3de:	2f 62       	addc	#4,	r15	;r2 As==10
 3e0:	75 69       	addc.b	@r9+,	r5	
 3e2:	6c 64       	addc.b	@r4,	r12	
 3e4:	2f 67       	addc	@r7,	r15	
 3e6:	63 63       	.word	0x6363;	????	Illegal as 2-op instr
 3e8:	2d 34       	jge	$+92     	;abs 0x444
 3ea:	2e 34       	jge	$+94     	;abs 0x448
 3ec:	2e 33       	jn	$-418    	;abs 0x24a
 3ee:	2d 62       	addc	#4,	r13	;r2 As==10
 3f0:	75 69       	addc.b	@r9+,	r5	
 3f2:	6c 64       	addc.b	@r4,	r12	
 3f4:	2f 2e       	jc	$-928    	;abs 0x54
 3f6:	2e 2f       	jc	$-418    	;abs 0x254
 3f8:	67 63       	addc.b	#2,	r7	;r3 As==10
 3fa:	63 2d       	jc	$+712    	;abs 0x6c2
 3fc:	34 2e       	jc	$-918    	;abs 0x66
 3fe:	34 2e       	jc	$-918    	;abs 0x68
 400:	33 2f       	jc	$-408    	;abs 0x268
 402:	6c 69       	addc.b	@r9,	r12	
 404:	62 67       	addc.b	@r7,	r2	
 406:	63 63       	.word	0x6363;	????	Illegal as 2-op instr
 408:	2f 2e       	jc	$-928    	;abs 0x68
 40a:	2e 2f       	jc	$-418    	;abs 0x268
 40c:	67 63       	addc.b	#2,	r7	;r3 As==10
 40e:	63 2f       	jc	$-312    	;abs 0x2d6
 410:	63 6f       	.word	0x6f63;	????	Illegal as 2-op instr
 412:	6e 66       	addc.b	@r6,	r14	
 414:	69 67       	addc.b	@r7,	r9	
 416:	2f 6d       	addc	@r13,	r15	
 418:	73 70       	.word	0x7073;	????	Illegal as 2-op instr
 41a:	34 33       	jn	$-406    	;abs 0x284
 41c:	30 00       	.word	0x0030;	????	
 41e:	00 6c       	addc	r12,	r0	
 420:	69 62       	addc.b	#4,	r9	;r2 As==10
 422:	67 63       	addc.b	#2,	r7	;r3 As==10
 424:	63 2e       	jc	$-824    	;abs 0xec
 426:	53 00       	.word	0x0053;	????	
 428:	01 00       	.word	0x0001;	????	
 42a:	00 00       	.word	0x0000;	????	
 42c:	00 03       	.word	0x0300;	????	
 42e:	02 2c       	jc	$+6      	;abs 0x434
 430:	f8 03       	.word	0x03f8;	????	
 432:	d3 05       	.word	0x05d3;	????	
 434:	01 02       	.word	0x0201;	????	
 436:	04 00       	.word	0x0004;	????	
 438:	01 01       	.word	0x0101;	????	

Disassembly of section .debug_frame:

00000000 <.debug_frame>:
   0:	10 00       	.word	0x0010;	????	
   2:	00 00       	.word	0x0000;	????	
   4:	ff ff ff ff 	and.b	@r15+,	-1(r15)	;0xffff(r15)
   8:	01 00       	.word	0x0001;	????	
   a:	01 7e       	subc	r14,	r1	
   c:	11 0c       	.word	0x0c11;	????	
   e:	01 02       	.word	0x0201;	????	
  10:	11 11 01 00 	rra	1(r1)		;0x0001(r1)
  14:	08 00       	.word	0x0008;	????	
  16:	00 00       	.word	0x0000;	????	
  18:	00 00       	.word	0x0000;	????	
  1a:	00 00       	.word	0x0000;	????	
  1c:	34 f8       	and	@r8+,	r4	
  1e:	0c 00       	.word	0x000c;	????	
  20:	08 00       	.word	0x0008;	????	
  22:	00 00       	.word	0x0000;	????	
  24:	00 00       	.word	0x0000;	????	
  26:	00 00       	.word	0x0000;	????	
  28:	40 f8       	and.b	r8,	r0	
  2a:	52 00       	.word	0x0052;	????	
  2c:	08 00       	.word	0x0008;	????	
  2e:	00 00       	.word	0x0000;	????	
  30:	00 00       	.word	0x0000;	????	
  32:	00 00       	.word	0x0000;	????	
  34:	92 f8 22 00 	Address 0x0000000000000038 is out of bounds.
and	34(r8),	&0xffff	;0x0022(r8)

Disassembly of section .debug_str:

00000000 <.debug_str>:
   0:	74 61       	addc.b	@r1+,	r4	
   2:	6d 63       	addc.b	#2,	r13	;r3 As==10
   4:	00 57       	add	r7,	r0	
   6:	44 54       	rla.b	r4		
   8:	43 54       	.word	0x5443;	????	Illegal as 2-op instr
   a:	4c 00       	.word	0x004c;	????	
   c:	41 44       	mov.b	r4,	r1	
   e:	43 31       	jn	$+648    	;abs 0x296
  10:	30 44       	br	@r4+		
  12:	54 43       	mov.b	#1,	r4	;r3 As==01
  14:	31 00       	.word	0x0031;	????	
  16:	74 69       	addc.b	@r9+,	r4	
  18:	6d 65       	addc.b	@r5,	r13	
  1a:	72 61       	addc.b	@r1+,	r2	
  1c:	00 61       	addc	r1,	r0	
  1e:	64 63       	addc.b	#2,	r4	;r3 As==10
  20:	31 30       	jn	$+100    	;abs 0x84
  22:	00 2a       	jnc	$-1022   	;abs 0xfc24
  24:	30 78       	subc	@r8+,	r0	
  26:	31 30       	jn	$+100    	;abs 0x8a
  28:	46 42       	mov.b	r2,	r6	
  2a:	00 41       	br	r1		
  2c:	44 43       	clr.b	r4		
  2e:	31 30       	jn	$+100    	;abs 0x92
  30:	4d 45       	mov.b	r5,	r13	
  32:	4d 00       	.word	0x004d;	????	
  34:	55 53       	inc.b	r5		
  36:	49 43       	clr.b	r9		
  38:	4e 54       	add.b	r4,	r14	
  3a:	00 2a       	jnc	$-1022   	;abs 0xfc3c
  3c:	30 78       	subc	@r8+,	r0	
  3e:	31 30       	jn	$+100    	;abs 0xa2
  40:	46 44       	mov.b	r4,	r6	
  42:	00 54       	add	r4,	r0	
  44:	41 30       	jn	$+132    	;abs 0xc8
  46:	43 43       	clr.b	#0		;r3 As==00
  48:	54 4c 30 00 	mov.b	48(r12),r4	;0x0030(r12)
  4c:	5f 5f 70 69 	add.b	26992(r15),r15	;0x6970(r15)
  50:	6e 00       	.word	0x006e;	????	
  52:	2a 30       	jn	$+86     	;abs 0xa8
  54:	78 30       	jn	$+242    	;abs 0x146
  56:	30 30       	jn	$+98     	;abs 0xb8
  58:	30 00       	.word	0x0030;	????	
  5a:	6f 75       	subc.b	@r5,	r15	
  5c:	74 6d       	addc.b	@r13+,	r4	
  5e:	6f 64       	addc.b	@r4,	r15	
  60:	00 54       	add	r4,	r0	
  62:	41 30       	jn	$+132    	;abs 0xe6
  64:	43 43       	clr.b	#0		;r3 As==00
  66:	52 30       	jn	$+166    	;abs 0x10c
  68:	00 61       	addc	r1,	r0	
  6a:	64 63       	addc.b	#2,	r4	;r3 As==10
  6c:	31 30       	jn	$+100    	;abs 0xd0
  6e:	6f 6e       	addc.b	@r14,	r15	
  70:	00 6c       	addc	r12,	r0	
  72:	6f 6e       	addc.b	@r14,	r15	
  74:	67 20       	jnz	$+208    	;abs 0x144
  76:	6c 6f       	addc.b	@r15,	r12	
  78:	6e 67       	addc.b	@r7,	r14	
  7a:	20 75       	subc	@r5,	r0	
  7c:	6e 73       	subc.b	#2,	r14	;r3 As==10
  7e:	69 67       	addc.b	@r7,	r9	
  80:	6e 65       	addc.b	@r5,	r14	
  82:	64 20       	jnz	$+202    	;abs 0x14c
  84:	69 6e       	addc.b	@r14,	r9	
  86:	74 00       	.word	0x0074;	????	
  88:	63 63       	.word	0x6363;	????	Illegal as 2-op instr
  8a:	74 6c       	addc.b	@r12+,	r4	
  8c:	30 00       	.word	0x0030;	????	
  8e:	63 63       	.word	0x6363;	????	Illegal as 2-op instr
  90:	74 6c       	addc.b	@r12+,	r4	
  92:	31 00       	.word	0x0031;	????	
  94:	47 4e       	mov.b	r14,	r7	
  96:	55 20       	jnz	$+172    	;abs 0x142
  98:	43 20       	jnz	$+136    	;abs 0x120
  9a:	34 2e       	jc	$-918    	;abs 0xfd04
  9c:	34 2e       	jc	$-918    	;abs 0xfd06
  9e:	33 00       	.word	0x0033;	????	
  a0:	2a 30       	jn	$+86     	;abs 0xf6
  a2:	78 30       	jn	$+242    	;abs 0x194
  a4:	30 34       	jge	$+98     	;abs 0x106
  a6:	38 00       	.word	0x0038;	????	
  a8:	2a 30       	jn	$+86     	;abs 0xfe
  aa:	78 30       	jn	$+242    	;abs 0x19c
  ac:	30 34       	jge	$+98     	;abs 0x10e
  ae:	39 00       	.word	0x0039;	????	
  b0:	74 61       	addc.b	@r1+,	r4	
  b2:	73 73       	.word	0x7373;	????	Illegal as 2-op instr
  b4:	65 6c       	addc.b	@r12,	r5	
  b6:	00 6c       	addc	r12,	r0	
  b8:	6f 6e       	addc.b	@r14,	r15	
  ba:	67 20       	jnz	$+208    	;abs 0x18a
  bc:	6c 6f       	addc.b	@r15,	r12	
  be:	6e 67       	addc.b	@r7,	r14	
  c0:	20 69       	addc	@r9,	r0	
  c2:	6e 74       	subc.b	@r4,	r14	
  c4:	00 2a       	jnc	$-1022   	;abs 0xfcc6
  c6:	30 78       	subc	@r8+,	r0	
  c8:	30 30       	jn	$+98     	;abs 0x12a
  ca:	34 41       	pop	r4		
  cc:	00 41       	br	r1		
  ce:	44 43       	clr.b	r4		
  d0:	31 30       	jn	$+100    	;abs 0x134
  d2:	41 45       	mov.b	r5,	r1	
  d4:	30 00       	.word	0x0030;	????	
  d6:	54 41 30 49 	mov.b	18736(r1),r4	;0x4930(r1)
  da:	56 00       	.word	0x0056;	????	
  dc:	43 41       	.word	0x4143;	????	Illegal as 2-op instr
  de:	4c 42       	mov.b	r2,	r12	
  e0:	43 31       	jn	$+648    	;abs 0x368
  e2:	5f 31       	jn	$+704    	;abs 0x3a2
  e4:	36 4d       	mov	@r13+,	r6	
  e6:	48 5a       	add.b	r10,	r8	
  e8:	00 43       	clr	r0		
  ea:	41 4c       	mov.b	r12,	r1	
  ec:	44 43       	clr.b	r4		
  ee:	4f 5f       	rla.b	r15		
  f0:	31 4d       	mov	@r13+,	r1	
  f2:	48 5a       	add.b	r10,	r8	
  f4:	00 41       	br	r1		
  f6:	44 43       	clr.b	r4		
  f8:	31 30       	jn	$+100    	;abs 0x15c
  fa:	53 41       	.word	0x4153;	????	Illegal as 2-op instr
  fc:	00 2a       	jnc	$-1022   	;abs 0xfcfe
  fe:	30 78       	subc	@r8+,	r0	
 100:	30 31       	jn	$+610    	;abs 0x362
 102:	36 30       	jn	$+110    	;abs 0x170
 104:	00 2a       	jnc	$-1022   	;abs 0xfd06
 106:	30 78       	subc	@r8+,	r0	
 108:	30 31       	jn	$+610    	;abs 0x36a
 10a:	36 32       	jn	$-914    	;abs 0xfd78
 10c:	00 42       	br	r2		
 10e:	43 53       	.word	0x5343;	????	Illegal as emulation instr
 110:	43 54       	.word	0x5443;	????	Illegal as 2-op instr
 112:	4c 31       	jn	$+666    	;abs 0x3ac
 114:	00 42       	br	r2		
 116:	43 53       	.word	0x5343;	????	Illegal as emulation instr
 118:	43 54       	.word	0x5443;	????	Illegal as 2-op instr
 11a:	4c 32       	jn	$-870    	;abs 0xfdb4
 11c:	00 42       	br	r2		
 11e:	43 53       	.word	0x5343;	????	Illegal as emulation instr
 120:	43 54       	.word	0x5443;	????	Illegal as 2-op instr
 122:	4c 33       	jn	$-358    	;abs 0xffbc
 124:	00 49       	br	r9		
 126:	46 47       	mov.b	r7,	r6	
 128:	31 00       	.word	0x0031;	????	
 12a:	44 43       	clr.b	r4		
 12c:	4f 43       	clr.b	r15		
 12e:	54 4c 00 41 	mov.b	16640(r12),r4	;0x4100(r12)
 132:	44 43       	clr.b	r4		
 134:	31 30       	jn	$+100    	;abs 0x198
 136:	44 54       	rla.b	r4		
 138:	43 30       	jn	$+136    	;abs 0x1c0
 13a:	00 61       	addc	r1,	r0	
 13c:	64 63       	addc.b	#2,	r4	;r3 As==10
 13e:	31 30       	jn	$+100    	;abs 0x1a2
 140:	64 69       	addc.b	@r9,	r4	
 142:	76 00       	.word	0x0076;	????	
 144:	2a 30       	jn	$+86     	;abs 0x19a
 146:	78 30       	jn	$+242    	;abs 0x238
 148:	30 35       	jge	$+610    	;abs 0x3aa
 14a:	33 00       	.word	0x0033;	????	
 14c:	2a 30       	jn	$+86     	;abs 0x1a2
 14e:	78 30       	jn	$+242    	;abs 0x240
 150:	30 35       	jge	$+610    	;abs 0x3b2
 152:	34 00       	.word	0x0034;	????	
 154:	2a 30       	jn	$+86     	;abs 0x1aa
 156:	78 30       	jn	$+242    	;abs 0x248
 158:	30 35       	jge	$+610    	;abs 0x3ba
 15a:	37 00       	.word	0x0037;	????	
 15c:	2a 30       	jn	$+86     	;abs 0x1b2
 15e:	78 30       	jn	$+242    	;abs 0x250
 160:	30 35       	jge	$+610    	;abs 0x3c2
 162:	38 00       	.word	0x0038;	????	
 164:	45 50       	add.b	r0,	r5	
 166:	43 54       	.word	0x5443;	????	Illegal as 2-op instr
 168:	4c 00       	.word	0x004c;	????	
 16a:	2a 30       	jn	$+86     	;abs 0x1c0
 16c:	78 30       	jn	$+242    	;abs 0x25e
 16e:	31 32       	jn	$-924    	;abs 0xfdd2
 170:	30 00       	.word	0x0030;	????	
 172:	70 6f       	addc.b	@r15+,	r0	
 174:	72 74       	subc.b	@r4+,	r2	
 176:	5f 66 75 6c 	addc.b	27765(r6),r15	;0x6c75(r6)
 17a:	6c 5f       	add.b	@r15,	r12	
 17c:	74 00       	.word	0x0074;	????	
 17e:	61 64       	addc.b	@r4,	r1	
 180:	63 31       	jn	$+712    	;abs 0x448
 182:	30 69       	addc	@r9+,	r0	
 184:	65 00       	.word	0x0065;	????	
 186:	50 32       	jn	$-862    	;abs 0xfe28
 188:	4f 55       	add.b	r5,	r15	
 18a:	54 00       	.word	0x0054;	????	
 18c:	64 75       	subc.b	@r5,	r4	
 18e:	6d 6d       	addc.b	@r13,	r13	
 190:	79 00       	.word	0x0079;	????	
 192:	70 6f       	addc.b	@r15+,	r0	
 194:	72 74       	subc.b	@r4+,	r2	
 196:	00 2a       	jnc	$-1022   	;abs 0xfd98
 198:	30 78       	subc	@r8+,	r0	
 19a:	30 31       	jn	$+610    	;abs 0x3fc
 19c:	37 30       	jn	$+112    	;abs 0x20c
 19e:	00 2a       	jnc	$-1022   	;abs 0xfda0
 1a0:	30 78       	subc	@r8+,	r0	
 1a2:	30 31       	jn	$+610    	;abs 0x404
 1a4:	37 32       	jn	$-912    	;abs 0xfe14
 1a6:	00 2a       	jnc	$-1022   	;abs 0xfda8
 1a8:	30 78       	subc	@r8+,	r0	
 1aa:	30 31       	jn	$+610    	;abs 0x40c
 1ac:	37 34       	jge	$+112    	;abs 0x21c
 1ae:	00 2a       	jnc	$-1022   	;abs 0xfdb0
 1b0:	30 78       	subc	@r8+,	r0	
 1b2:	30 31       	jn	$+610    	;abs 0x414
 1b4:	36 34       	jge	$+110    	;abs 0x222
 1b6:	00 6c       	addc	r12,	r0	
 1b8:	6f 6f       	addc.b	@r15,	r15	
 1ba:	70 00       	.word	0x0070;	????	
 1bc:	50 31       	jn	$+674    	;abs 0x45e
 1be:	44 49       	mov.b	r9,	r4	
 1c0:	52 00       	.word	0x0052;	????	
 1c2:	54 41 30 43 	mov.b	17200(r1),r4	;0x4330(r1)
 1c6:	43 54       	.word	0x5443;	????	Illegal as 2-op instr
 1c8:	4c 31       	jn	$+666    	;abs 0x462
 1ca:	00 2a       	jnc	$-1022   	;abs 0xfdcc
 1cc:	30 78       	subc	@r8+,	r0	
 1ce:	31 30       	jn	$+100    	;abs 0x232
 1d0:	46 45       	mov.b	r5,	r6	
 1d2:	00 50       	rla	r0		
 1d4:	32 49       	mov	@r9+,	r2	
 1d6:	45 00       	.word	0x0045;	????	
 1d8:	50 31       	jn	$+674    	;abs 0x47a
 1da:	49 45       	mov.b	r5,	r9	
 1dc:	53 00       	.word	0x0053;	????	
 1de:	70 6f       	addc.b	@r15+,	r0	
 1e0:	72 74       	subc.b	@r4+,	r2	
 1e2:	31 00       	.word	0x0031;	????	
 1e4:	70 6f       	addc.b	@r15+,	r0	
 1e6:	72 74       	subc.b	@r4+,	r2	
 1e8:	32 00       	.word	0x0032;	????	
 1ea:	74 61       	addc.b	@r1+,	r4	
 1ec:	63 63       	.word	0x6363;	????	Illegal as 2-op instr
 1ee:	72 30       	jn	$+230    	;abs 0x2d4
 1f0:	00 74       	subc	r4,	r0	
 1f2:	61 63       	addc.b	#2,	r1	;r3 As==10
 1f4:	63 72       	.word	0x7263;	????	Illegal as 2-op instr
 1f6:	31 00       	.word	0x0031;	????	
 1f8:	72 65       	addc.b	@r5+,	r2	
 1fa:	67 5f       	add.b	@r15,	r7	
 1fc:	70 00       	.word	0x0070;	????	
 1fe:	2a 30       	jn	$+86     	;abs 0x254
 200:	78 31       	jn	$+754    	;abs 0x4f2
 202:	30 46       	br	@r6+		
 204:	38 00       	.word	0x0038;	????	
 206:	2a 30       	jn	$+86     	;abs 0x25c
 208:	78 31       	jn	$+754    	;abs 0x4fa
 20a:	30 46       	br	@r6+		
 20c:	39 00       	.word	0x0039;	????	
 20e:	50 31       	jn	$+674    	;abs 0x4b0
 210:	4f 55       	add.b	r5,	r15	
 212:	54 00       	.word	0x0054;	????	
 214:	55 53       	inc.b	r5		
 216:	49 43       	clr.b	r9		
 218:	4b 43       	clr.b	r11		
 21a:	54 4c 00 61 	mov.b	24832(r12),r4	;0x6100(r12)
 21e:	64 63       	addc.b	#2,	r4	;r3 As==10
 220:	31 30       	jn	$+100    	;abs 0x284
 222:	73 68       	.word	0x6873;	????	Illegal as 2-op instr
 224:	74 00       	.word	0x0074;	????	
 226:	2a 30       	jn	$+86     	;abs 0x27c
 228:	78 31       	jn	$+754    	;abs 0x51a
 22a:	30 46       	br	@r6+		
 22c:	41 00       	.word	0x0041;	????	
 22e:	2a 30       	jn	$+86     	;abs 0x284
 230:	78 30       	jn	$+242    	;abs 0x322
 232:	30 35       	jge	$+610    	;abs 0x494
 234:	36 00       	.word	0x0036;	????	
 236:	2a 30       	jn	$+86     	;abs 0x28c
 238:	78 31       	jn	$+754    	;abs 0x52a
 23a:	30 46       	br	@r6+		
 23c:	43 00       	.word	0x0043;	????	
 23e:	63 63       	.word	0x6363;	????	Illegal as 2-op instr
 240:	69 66       	addc.b	@r6,	r9	
 242:	67 00       	.word	0x0067;	????	
 244:	43 41       	.word	0x4143;	????	Illegal as 2-op instr
 246:	4c 44       	mov.b	r4,	r12	
 248:	43 4f       	.word	0x4f43;	????	Illegal as 2-op instr
 24a:	5f 31       	jn	$+704    	;abs 0x50a
 24c:	36 4d       	mov	@r13+,	r6	
 24e:	48 5a       	add.b	r10,	r8	
 250:	00 43       	clr	r0		
 252:	41 4c       	mov.b	r12,	r1	
 254:	42 43       	clr.b	r2		
 256:	31 5f       	add	@r15+,	r1	
 258:	31 4d       	mov	@r13+,	r1	
 25a:	48 5a       	add.b	r10,	r8	
 25c:	00 43       	clr	r0		
 25e:	41 4c       	mov.b	r12,	r1	
 260:	44 43       	clr.b	r4		
 262:	4f 5f       	rla.b	r15		
 264:	38 4d       	mov	@r13+,	r8	
 266:	48 5a       	add.b	r10,	r8	
 268:	00 6d       	addc	r13,	r0	
 26a:	61 69       	addc.b	@r9,	r1	
 26c:	6e 2e       	jc	$-802    	;abs 0xff4a
 26e:	63 00       	.word	0x0063;	????	
 270:	2a 30       	jn	$+86     	;abs 0x2c6
 272:	78 30       	jn	$+242    	;abs 0x364
 274:	30 37       	jge	$-414    	;abs 0xd6
 276:	43 00       	.word	0x0043;	????	
 278:	2a 30       	jn	$+86     	;abs 0x2ce
 27a:	78 30       	jn	$+242    	;abs 0x36c
 27c:	30 37       	jge	$-414    	;abs 0xde
 27e:	44 00       	.word	0x0044;	????	
 280:	50 32       	jn	$-862    	;abs 0xff22
 282:	53 45       	.word	0x4553;	????	Illegal as 2-op instr
 284:	4c 00       	.word	0x004c;	????	
 286:	54 41 30 43 	mov.b	17200(r1),r4	;0x4330(r1)
 28a:	43 52       	.word	0x5243;	????	Illegal as 2-op instr
 28c:	31 00       	.word	0x0031;	????	
 28e:	73 63       	.word	0x6373;	????	Illegal as 2-op instr
 290:	63 69       	.word	0x6963;	????	Illegal as 2-op instr
 292:	00 55       	add	r5,	r0	
 294:	53 49       	.word	0x4953;	????	Illegal as 2-op instr
 296:	43 54       	.word	0x5443;	????	Illegal as 2-op instr
 298:	4c 30       	jn	$+154    	;abs 0x332
 29a:	00 55       	add	r5,	r0	
 29c:	53 49       	.word	0x4953;	????	Illegal as 2-op instr
 29e:	43 54       	.word	0x5443;	????	Illegal as 2-op instr
 2a0:	4c 31       	jn	$+666    	;abs 0x53a
 2a2:	00 50       	rla	r0		
 2a4:	31 49       	mov	@r9+,	r1	
 2a6:	46 47       	mov.b	r7,	r6	
 2a8:	00 61       	addc	r1,	r0	
 2aa:	64 63       	addc.b	#2,	r4	;r3 As==10
 2ac:	31 30       	jn	$+100    	;abs 0x310
 2ae:	63 74       	.word	0x7463;	????	Illegal as 2-op instr
 2b0:	6c 31       	jn	$+730    	;abs 0x58a
 2b2:	5f 74 00 74 	subc.b	29696(r4),r15	;0x7400(r4)
 2b6:	61 69       	addc.b	@r9,	r1	
 2b8:	64 00       	.word	0x0064;	????	
 2ba:	74 61       	addc.b	@r1+,	r4	
 2bc:	69 65       	addc.b	@r5,	r9	
 2be:	00 46       	br	r6		
 2c0:	43 54       	.word	0x5443;	????	Illegal as 2-op instr
 2c2:	4c 33       	jn	$-358    	;abs 0x15c
 2c4:	00 74       	subc	r4,	r0	
 2c6:	61 63       	addc.b	#2,	r1	;r3 As==10
 2c8:	74 6c       	addc.b	@r12+,	r4	
 2ca:	5f 74 00 64 	subc.b	25600(r4),r15	;0x6400(r4)
 2ce:	75 6d       	addc.b	@r13+,	r5	
 2d0:	6d 79       	subc.b	@r9,	r13	
 2d2:	31 00       	.word	0x0031;	????	
 2d4:	64 75       	subc.b	@r5,	r4	
 2d6:	6d 6d       	addc.b	@r13,	r13	
 2d8:	79 32       	jn	$-780    	;abs 0xffcc
 2da:	00 74       	subc	r4,	r0	
 2dc:	61 63       	addc.b	#2,	r1	;r3 As==10
 2de:	6c 72       	subc.b	#4,	r12	;r2 As==10
 2e0:	00 2a       	jnc	$-1022   	;abs 0xfee2
 2e2:	30 78       	subc	@r8+,	r0	
 2e4:	30 30       	jn	$+98     	;abs 0x346
 2e6:	37 38       	jl	$+112    	;abs 0x356
 2e8:	00 2a       	jnc	$-1022   	;abs 0xfeea
 2ea:	30 78       	subc	@r8+,	r0	
 2ec:	30 30       	jn	$+98     	;abs 0x34e
 2ee:	37 39       	jl	$+624    	;abs 0x55e
 2f0:	00 64       	addc	r4,	r0	
 2f2:	65 6c       	addc.b	@r12,	r5	
 2f4:	61 79       	subc.b	@r9,	r1	
 2f6:	43 6f       	.word	0x6f43;	????	Illegal as 2-op instr
 2f8:	75 6e       	addc.b	@r14+,	r5	
 2fa:	74 64       	addc.b	@r4+,	r4	
 2fc:	6f 77       	subc.b	@r7,	r15	
 2fe:	6e 00       	.word	0x006e;	????	
 300:	50 31       	jn	$+674    	;abs 0x5a2
 302:	49 45       	mov.b	r5,	r9	
 304:	00 2a       	jnc	$-1022   	;abs 0xff06
 306:	30 78       	subc	@r8+,	r0	
 308:	30 30       	jn	$+98     	;abs 0x36a
 30a:	37 42       	mov	#8,	r7	;r2 As==11
 30c:	00 61       	addc	r1,	r0	
 30e:	64 63       	addc.b	#2,	r4	;r3 As==10
 310:	31 30       	jn	$+100    	;abs 0x374
 312:	73 73       	.word	0x7373;	????	Illegal as 2-op instr
 314:	65 6c       	addc.b	@r12,	r5	
 316:	00 50       	rla	r0		
 318:	31 53       	add	#-1,	r1	;r3 As==11
 31a:	45 4c       	mov.b	r12,	r5	
 31c:	00 73       	sbc	r0		
 31e:	65 74       	subc.b	@r4,	r5	
 320:	75 70 00 50 	subc.b	#20480,	r5	;#0x5000
 324:	31 49       	mov	@r9+,	r1	
 326:	4e 00       	.word	0x004e;	????	
 328:	61 64       	addc.b	@r4,	r1	
 32a:	63 31       	jn	$+712    	;abs 0x5f2
 32c:	30 73       	subc	#-1,	r0	;r3 As==11
 32e:	63 00       	.word	0x0063;	????	
 330:	2a 30       	jn	$+86     	;abs 0x386
 332:	78 30       	jn	$+242    	;abs 0x424
 334:	30 30       	jn	$+98     	;abs 0x396
 336:	32 00       	.word	0x0032;	????	
 338:	55 53       	inc.b	r5		
 33a:	49 53       	add.b	#0,	r9	;r3 As==00
 33c:	52 00       	.word	0x0052;	????	
 33e:	61 64       	addc.b	@r4,	r1	
 340:	63 31       	jn	$+712    	;abs 0x608
 342:	30 73       	subc	#-1,	r0	;r3 As==11
 344:	72 00       	.word	0x0072;	????	
 346:	43 41       	.word	0x4143;	????	Illegal as 2-op instr
 348:	4c 42       	mov.b	r2,	r12	
 34a:	43 31       	jn	$+648    	;abs 0x5d2
 34c:	5f 31       	jn	$+704    	;abs 0x60c
 34e:	32 4d       	mov	@r13+,	r2	
 350:	48 5a       	add.b	r10,	r8	
 352:	00 74       	subc	r4,	r0	
 354:	61 69       	addc.b	@r9,	r1	
 356:	66 67       	addc.b	@r7,	r6	
 358:	00 55       	add	r5,	r0	
 35a:	53 49       	.word	0x4953;	????	Illegal as 2-op instr
 35c:	43 43       	clr.b	#0		;r3 As==00
 35e:	54 4c 00 41 	mov.b	16640(r12),r4	;0x4100(r12)
 362:	44 43       	clr.b	r4		
 364:	31 30       	jn	$+100    	;abs 0x3c8
 366:	43 54       	.word	0x5443;	????	Illegal as 2-op instr
 368:	4c 30       	jn	$+154    	;abs 0x402
 36a:	00 41       	br	r1		
 36c:	44 43       	clr.b	r4		
 36e:	31 30       	jn	$+100    	;abs 0x3d2
 370:	43 54       	.word	0x5443;	????	Illegal as 2-op instr
 372:	4c 31       	jn	$+666    	;abs 0x60c
 374:	00 75       	subc	r5,	r0	
 376:	6e 73       	subc.b	#2,	r14	;r3 As==10
 378:	69 67       	addc.b	@r7,	r9	
 37a:	6e 65       	addc.b	@r5,	r14	
 37c:	64 20       	jnz	$+202    	;abs 0x446
 37e:	63 68       	.word	0x6863;	????	Illegal as 2-op instr
 380:	61 72       	subc.b	#4,	r1	;r2 As==10
 382:	00 43       	clr	r0		
 384:	41 4c       	mov.b	r12,	r1	
 386:	42 43       	clr.b	r2		
 388:	31 5f       	add	@r15+,	r1	
 38a:	38 4d       	mov	@r13+,	r8	
 38c:	48 5a       	add.b	r10,	r8	
 38e:	00 61       	addc	r1,	r0	
 390:	64 63       	addc.b	#2,	r4	;r3 As==10
 392:	31 30       	jn	$+100    	;abs 0x3f6
 394:	63 74       	.word	0x7463;	????	Illegal as 2-op instr
 396:	6c 30       	jn	$+218    	;abs 0x470
 398:	5f 74 00 72 	subc.b	29184(r4),r15	;0x7200(r4)
 39c:	65 66       	addc.b	@r6,	r5	
 39e:	6f 6e       	addc.b	@r14,	r15	
 3a0:	00 5f       	add	r15,	r0	
 3a2:	5f 70 30 00 	subc.b	0x0030,	r15	;PC rel. 0x003d6
 3a6:	5f 5f 70 31 	add.b	12656(r15),r15	;0x3170(r15)
 3aa:	00 5f       	add	r15,	r0	
 3ac:	5f 70 32 00 	subc.b	0x0032,	r15	;PC rel. 0x003e2
 3b0:	5f 5f 70 33 	add.b	13168(r15),r15	;0x3370(r15)
 3b4:	00 5f       	add	r15,	r0	
 3b6:	5f 70 34 00 	subc.b	0x0034,	r15	;PC rel. 0x003ee
 3ba:	5f 5f 70 35 	add.b	13680(r15),r15	;0x3570(r15)
 3be:	00 5f       	add	r15,	r0	
 3c0:	5f 70 36 00 	subc.b	0x0036,	r15	;PC rel. 0x003fa
 3c4:	5f 5f 70 37 	add.b	14192(r15),r15	;0x3770(r15)
 3c8:	00 2a       	jnc	$-1022   	;abs 0xffca
 3ca:	30 78       	subc	@r8+,	r0	
 3cc:	30 31       	jn	$+610    	;abs 0x62e
 3ce:	32 38       	jl	$+102    	;abs 0x434
 3d0:	00 50       	rla	r0		
 3d2:	32 44       	mov	@r4+,	r2	
 3d4:	49 52       	add.b	r2,	r9	
 3d6:	00 63       	adc	r0		
 3d8:	63 69       	.word	0x6963;	????	Illegal as 2-op instr
 3da:	65 00       	.word	0x0065;	????	
 3dc:	2a 30       	jn	$+86     	;abs 0x432
 3de:	78 30       	jn	$+242    	;abs 0x4d0
 3e0:	31 32       	jn	$-924    	;abs 0x44
 3e2:	41 00       	.word	0x0041;	????	
 3e4:	61 64       	addc.b	@r4,	r1	
 3e6:	63 31       	jn	$+712    	;abs 0x6ae
 3e8:	30 62       	addc	#8,	r0	;r2 As==11
 3ea:	75 73       	subc.b	#-1,	r5	;r3 As==11
 3ec:	79 00       	.word	0x0079;	????	
 3ee:	2a 30       	jn	$+86     	;abs 0x444
 3f0:	78 30       	jn	$+242    	;abs 0x4e2
 3f2:	31 32       	jn	$-924    	;abs 0x56
 3f4:	43 00       	.word	0x0043;	????	
 3f6:	2a 30       	jn	$+86     	;abs 0x44c
 3f8:	78 30       	jn	$+242    	;abs 0x4ea
 3fa:	31 32       	jn	$-924    	;abs 0x5e
 3fc:	45 00       	.word	0x0045;	????	
 3fe:	2a 30       	jn	$+86     	;abs 0x454
 400:	78 31       	jn	$+754    	;abs 0x6f2
 402:	30 46       	br	@r6+		
 404:	46 00       	.word	0x0046;	????	
 406:	63 63       	.word	0x6363;	????	Illegal as 2-op instr
 408:	69 73       	subc.b	#2,	r9	;r3 As==10
 40a:	00 2f       	jc	$-510    	;abs 0x20c
 40c:	55 73       	subc.b	#1,	r5	;r3 As==01
 40e:	65 72       	subc.b	#4,	r5	;r2 As==10
 410:	73 2f       	jc	$-280    	;abs 0x2f8
 412:	6d 39       	jl	$+732    	;abs 0x6ee
 414:	64 66       	addc.b	@r6,	r4	
 416:	75 6b       	addc.b	@r11+,	r5	
 418:	63 2f       	jc	$-312    	;abs 0x2e0
 41a:	44 65       	addc.b	r5,	r4	
 41c:	73 6b       	.word	0x6b73;	????	Illegal as 2-op instr
 41e:	74 6f       	addc.b	@r15+,	r4	
 420:	70 2f       	jc	$-286    	;abs 0x302
 422:	78 54       	add.b	@r4+,	r8	
 424:	65 72       	subc.b	#4,	r5	;r2 As==10
 426:	6e 61       	addc.b	@r1,	r14	
 428:	6c 42       	mov.b	#4,	r12	;r2 As==10
 42a:	75 69       	addc.b	@r9+,	r5	
 42c:	6c 64       	addc.b	@r4,	r12	
 42e:	00 50       	rla	r0		
 430:	31 52       	add	#8,	r1	;r2 As==11
 432:	45 4e       	mov.b	r14,	r5	
 434:	00 55       	add	r5,	r0	
 436:	53 49       	.word	0x4953;	????	Illegal as 2-op instr
 438:	53 52       	.word	0x5253;	????	Illegal as 2-op instr
 43a:	48 00       	.word	0x0048;	????	
 43c:	74 61       	addc.b	@r1+,	r4	
 43e:	63 63       	.word	0x6363;	????	Illegal as 2-op instr
 440:	74 6c       	addc.b	@r12+,	r4	
 442:	5f 74 00 55 	subc.b	21760(r4),r15	;0x5500(r4)
 446:	53 49       	.word	0x4953;	????	Illegal as 2-op instr
 448:	53 52       	.word	0x5253;	????	Illegal as 2-op instr
 44a:	4c 00       	.word	0x004c;	????	
 44c:	74 69       	addc.b	@r9+,	r4	
 44e:	6d 65       	addc.b	@r5,	r13	
 450:	72 61       	addc.b	@r1+,	r2	
 452:	5f 74 00 50 	subc.b	20480(r4),r15	;0x5000(r4)
 456:	32 49       	mov	@r9+,	r2	
 458:	45 53       	add.b	#0,	r5	;r3 As==00
 45a:	00 2a       	jnc	$-1022   	;abs 0x5c
 45c:	30 78       	subc	@r8+,	r0	
 45e:	30 31       	jn	$+610    	;abs 0x6c0
 460:	42 30       	jn	$+134    	;abs 0x4e6
 462:	00 2a       	jnc	$-1022   	;abs 0x64
 464:	30 78       	subc	@r8+,	r0	
 466:	30 31       	jn	$+610    	;abs 0x6c8
 468:	42 32       	jn	$-890    	;abs 0xee
 46a:	00 2a       	jnc	$-1022   	;abs 0x6c
 46c:	30 78       	subc	@r8+,	r0	
 46e:	30 31       	jn	$+610    	;abs 0x6d0
 470:	42 34       	jge	$+134    	;abs 0x4f6
 472:	00 50       	rla	r0		
 474:	32 52       	add	#8,	r2	;r2 As==11
 476:	45 4e       	mov.b	r14,	r5	
 478:	00 2a       	jnc	$-1022   	;abs 0x7a
 47a:	30 78       	subc	@r8+,	r0	
 47c:	30 31       	jn	$+610    	;abs 0x6de
 47e:	42 43       	clr.b	r2		
 480:	00 50       	rla	r0		
 482:	32 49       	mov	@r9+,	r2	
 484:	4e 00       	.word	0x004e;	????	
 486:	55 53       	inc.b	r5		
 488:	49 43       	clr.b	r9		
 48a:	54 4c 00 54 	mov.b	21504(r12),r4	;0x5400(r12)
 48e:	41 30       	jn	$+132    	;abs 0x512
 490:	43 54       	.word	0x5443;	????	Illegal as 2-op instr
 492:	4c 00       	.word	0x004c;	????	
 494:	2a 30       	jn	$+86     	;abs 0x4ea
 496:	78 30       	jn	$+242    	;abs 0x588
 498:	30 32       	jn	$-926    	;abs 0xfa
 49a:	30 00       	.word	0x0030;	????	
 49c:	2a 30       	jn	$+86     	;abs 0x4f2
 49e:	78 30       	jn	$+242    	;abs 0x590
 4a0:	30 32       	jn	$-926    	;abs 0x102
 4a2:	31 00       	.word	0x0031;	????	
 4a4:	2a 30       	jn	$+86     	;abs 0x4fa
 4a6:	78 30       	jn	$+242    	;abs 0x598
 4a8:	30 32       	jn	$-926    	;abs 0x10a
 4aa:	32 00       	.word	0x0032;	????	
 4ac:	2a 30       	jn	$+86     	;abs 0x502
 4ae:	78 30       	jn	$+242    	;abs 0x5a0
 4b0:	30 32       	jn	$-926    	;abs 0x112
 4b2:	33 00       	.word	0x0033;	????	
 4b4:	2a 30       	jn	$+86     	;abs 0x50a
 4b6:	78 30       	jn	$+242    	;abs 0x5a8
 4b8:	30 32       	jn	$-926    	;abs 0x11a
 4ba:	34 00       	.word	0x0034;	????	
 4bc:	2a 30       	jn	$+86     	;abs 0x512
 4be:	78 30       	jn	$+242    	;abs 0x5b0
 4c0:	30 32       	jn	$-926    	;abs 0x122
 4c2:	35 00       	.word	0x0035;	????	
 4c4:	2a 30       	jn	$+86     	;abs 0x51a
 4c6:	78 30       	jn	$+242    	;abs 0x5b8
 4c8:	30 32       	jn	$-926    	;abs 0x12a
 4ca:	36 00       	.word	0x0036;	????	
 4cc:	2a 30       	jn	$+86     	;abs 0x522
 4ce:	78 30       	jn	$+242    	;abs 0x5c0
 4d0:	30 32       	jn	$-926    	;abs 0x132
 4d2:	37 00       	.word	0x0037;	????	
 4d4:	2a 30       	jn	$+86     	;abs 0x52a
 4d6:	78 30       	jn	$+242    	;abs 0x5c8
 4d8:	30 32       	jn	$-926    	;abs 0x13a
 4da:	38 00       	.word	0x0038;	????	
 4dc:	2a 30       	jn	$+86     	;abs 0x532
 4de:	78 30       	jn	$+242    	;abs 0x5d0
 4e0:	30 32       	jn	$-926    	;abs 0x142
 4e2:	39 00       	.word	0x0039;	????	
 4e4:	2a 30       	jn	$+86     	;abs 0x53a
 4e6:	78 30       	jn	$+242    	;abs 0x5d8
 4e8:	30 32       	jn	$-926    	;abs 0x14a
 4ea:	41 00       	.word	0x0041;	????	
 4ec:	2a 30       	jn	$+86     	;abs 0x542
 4ee:	78 30       	jn	$+242    	;abs 0x5e0
 4f0:	30 32       	jn	$-926    	;abs 0x152
 4f2:	42 00       	.word	0x0042;	????	
 4f4:	2a 30       	jn	$+86     	;abs 0x54a
 4f6:	78 30       	jn	$+242    	;abs 0x5e8
 4f8:	30 32       	jn	$-926    	;abs 0x15a
 4fa:	43 00       	.word	0x0043;	????	
 4fc:	2a 30       	jn	$+86     	;abs 0x552
 4fe:	78 30       	jn	$+242    	;abs 0x5f0
 500:	30 32       	jn	$-926    	;abs 0x162
 502:	44 00       	.word	0x0044;	????	
 504:	2a 30       	jn	$+86     	;abs 0x55a
 506:	78 30       	jn	$+242    	;abs 0x5f8
 508:	30 32       	jn	$-926    	;abs 0x16a
 50a:	45 00       	.word	0x0045;	????	
 50c:	2a 30       	jn	$+86     	;abs 0x562
 50e:	78 30       	jn	$+242    	;abs 0x600
 510:	30 32       	jn	$-926    	;abs 0x172
 512:	46 00       	.word	0x0046;	????	
 514:	69 6f       	addc.b	@r15,	r9	
 516:	72 65       	addc.b	@r5+,	r2	
 518:	67 69       	addc.b	@r9,	r7	
 51a:	73 74       	.word	0x7473;	????	Illegal as 2-op instr
 51c:	65 72       	subc.b	#4,	r5	;r2 As==10
 51e:	5f 74 00 63 	subc.b	25344(r4),r15	;0x6300(r4)
 522:	6f 6e       	addc.b	@r14,	r15	
 524:	73 65       	.word	0x6573;	????	Illegal as 2-op instr
 526:	71 00       	.word	0x0071;	????	
 528:	61 64       	addc.b	@r4,	r1	
 52a:	63 31       	jn	$+712    	;abs 0x7f2
 52c:	30 69       	addc	@r9+,	r0	
 52e:	66 67       	addc.b	@r7,	r6	
 530:	00 72       	subc	r2,	r0	
 532:	32 5f       	add	@r15+,	r2	
 534:	35 76       	subc	@r6+,	r5	
 536:	00 54       	add	r4,	r0	
 538:	41 30       	jn	$+132    	;abs 0x5bc
 53a:	52 00       	.word	0x0052;	????	
 53c:	43 41       	.word	0x4143;	????	Illegal as 2-op instr
 53e:	4c 44       	mov.b	r4,	r12	
 540:	43 4f       	.word	0x4f43;	????	Illegal as 2-op instr
 542:	5f 31       	jn	$+704    	;abs 0x802
 544:	32 4d       	mov	@r13+,	r2	
 546:	48 5a       	add.b	r10,	r8	
 548:	00 6d       	addc	r13,	r0	
 54a:	61 69       	addc.b	@r9,	r1	
 54c:	6e 00       	.word	0x006e;	????	
 54e:	46 43       	clr.b	r6		
 550:	54 4c 32 00 	mov.b	50(r12),r4	;0x0032(r12)
 554:	2a 30       	jn	$+86     	;abs 0x5aa
 556:	78 30       	jn	$+242    	;abs 0x648
 558:	30 37       	jge	$-414    	;abs 0x3ba
 55a:	41 00       	.word	0x0041;	????	
 55c:	50 32       	jn	$-862    	;abs 0x1fe
 55e:	49 46       	mov.b	r6,	r9	
 560:	47 00       	.word	0x0047;	????	
 562:	61 64       	addc.b	@r4,	r1	
 564:	63 31       	jn	$+712    	;abs 0x82c
 566:	30 5f       	add	@r15+,	r0	
 568:	74 00       	.word	0x0074;	????	
 56a:	46 43       	clr.b	r6		
 56c:	54 4c 31 00 	mov.b	49(r12),r4	;0x0031(r12)

Disassembly of section .debug_loc:

00000000 <.debug_loc>:
   0:	18 00       	.word	0x0018;	????	
   2:	40 00       	.word	0x0040;	????	
   4:	01 00       	.word	0x0001;	????	
   6:	5f 00       	.word	0x005f;	????	
   8:	00 00       	.word	0x0000;	????	
   a:	00 1a       	.word	0x1a00;	????	
   c:	00 42       	br	r2		
   e:	00 01       	.word	0x0100;	????	
  10:	00 5e       	add	r14,	r0	
  12:	58 00       	.word	0x0058;	????	
  14:	5a 00       	.word	0x005a;	????	
  16:	01 00       	.word	0x0001;	????	
  18:	5e 00       	.word	0x005e;	????	
  1a:	00 00       	.word	0x0000;	????	
	...
